(dp0
S'request'
p1
(dp2
S'0x48be562b48014d49'
p3
ccopy_reg
_reconstructor
p4
(cmodel
Request
p5
c__builtin__
object
p6
Ntp7
Rp8
(dp9
S'dateS'
p10
Vx
p11
sS'longitude'
p12
V-122.395234
p13
sS'dateE'
p14
Vx
p15
sS'time'
p16
cdatetime
datetime
p17
(S'\x07\xdc\x05\x0e\x139\x05\x02\xb9V'
p18
tp19
Rp20
sS'latitude'
p21
V37.776289
p22
sS'id'
p23
g3
sbsS'0x2d09427ce5af20c3'
p24
g4
(g5
g6
Ntp25
Rp26
(dp27
g10
Vz
p28
sg12
V90
p29
sg14
Vz
p30
sg16
g17
(S'\x07\xdc\x05\x0e\x0e88\x04KQ'
p31
tp32
Rp33
sg21
V80
p34
sg23
g24
sbsS'0x194b675879950e64'
p35
g4
(g5
g6
Ntp36
Rp37
(dp38
g10
Vx
p39
sg12
V-122.395234
p40
sg14
Vx
p41
sg16
g17
(S'\x07\xdc\x05\x0e\x0e1;\x0f\n\xc2'
p42
tp43
Rp44
sg21
V37.776289
p45
sg23
g35
sbsS'0x54e9cd926e7f9dfe'
p46
g4
(g5
g6
Ntp47
Rp48
(dp49
g10
Vx
p50
sg12
V-122.395234
p51
sg14
Vx
p52
sg16
g17
(S'\x07\xdc\x05\x0e\x0e4\x0c\x04\x16\xcf'
p53
tp54
Rp55
sg21
V37.776289
p56
sg23
g46
sbsS'-0x77f101605418c321'
p57
g4
(g5
g6
Ntp58
Rp59
(dp60
g10
Vx
p61
sg12
V180
p62
sg14
Vx
p63
sg16
g17
(S'\x07\xdc\x05\x0e\x0f1:\x01\x1e('
p64
tp65
Rp66
sg21
V91
p67
sg23
g57
sbsS'-0x2ebcab8d86d18130'
p68
g4
(g5
g6
Ntp69
Rp70
(dp71
g10
Vx
p72
sg12
V122.395234
p73
sg14
Vx
p74
sg16
g17
(S'\x07\xdc\x05\x0e\x139\x0b\x03\xb0W'
p75
tp76
Rp77
sg21
V37.776289
p78
sg23
g68
sbsS'0x1355de66eb7072cc'
p79
g4
(g5
g6
Ntp80
Rp81
(dp82
g10
Vx
p83
sg12
V-122.395234
p84
sg14
Vx
p85
sg16
g17
(S'\x07\xdc\x05\x0e\x0e-,\x0c\x82\xfc'
p86
tp87
Rp88
sg21
V37.776289
p89
sg23
g79
sbsS'-0x1d0e6b6f905b762b'
p90
g4
(g5
g6
Ntp91
Rp92
(dp93
g10
Vz
p94
sg12
V90
p95
sg14
Vz
p96
sg16
g17
(S'\x07\xdc\x05\x0e\x0e94\t\xd6\xb8'
p97
tp98
Rp99
sg21
V80
p100
sg23
g90
sbsS'0x5a11ac42c83dbbab'
p101
g4
(g5
g6
Ntp102
Rp103
(dp104
g10
Vx
p105
sg12
V-122.395234
p106
sg14
Vx
p107
sg16
g17
(S'\x07\xdc\x05\x0e\x13\x1e\x18\n\xe6\x9d'
p108
tp109
Rp110
sg21
V40
p111
sg23
g101
sbsS'0x7ec9bfd31b564c4c'
p112
g4
(g5
g6
Ntp113
Rp114
(dp115
g10
Vx
p116
sg12
V-122.395234
p117
sg14
Vx
p118
sg16
g17
(S'\x07\xdc\x05\x0e\x0f1\x15\x00\xba\x08'
p119
tp120
Rp121
sg21
V37.776289
p122
sg23
g112
sbsS'0xe403be237950991'
p123
g4
(g5
g6
Ntp124
Rp125
(dp126
g10
Vz
p127
sg12
V170
p128
sg14
Vz
p129
sg16
g17
(S'\x07\xdc\x05\x0e\x0f\x02\x1c\x06\x9bb'
p130
tp131
Rp132
sg21
V80
p133
sg23
g123
sbsS'-0x148b9843b3dd1180'
p134
g4
(g5
g6
Ntp135
Rp136
(dp137
g10
Vx
p138
sg12
V170
p139
sg14
Vx
p140
sg16
g17
(S'\x07\xdc\x05\x0e\x10\x0c0\x0c\x823'
p141
tp142
Rp143
sg21
V80
p144
sg23
g134
sbsS'0x49f21d2c59ca3e23'
p145
g4
(g5
g6
Ntp146
Rp147
(dp148
g10
Vz
p149
sg12
V170
p150
sg14
Vz
p151
sg16
g17
(S'\x07\xdc\x05\x0e\x0f\x0c6\tu\xc1'
p152
tp153
Rp154
sg21
V80
p155
sg23
g145
sbsS'-0xcdc85bbddd186b5'
p156
g4
(g5
g6
Ntp157
Rp158
(dp159
g10
Vz
p160
sg12
V90
p161
sg14
Vz
p162
sg16
g17
(S'\x07\xdc\x05\x0e\x0e77\x06\xeb!'
p163
tp164
Rp165
sg21
V80
p166
sg23
g156
sbsS'-0x1c177ef859c0784d'
p167
g4
(g5
g6
Ntp168
Rp169
(dp170
g10
Vx
p171
sg12
V-122.395234
p172
sg14
Vx
p173
sg16
g17
(S'\x07\xdc\x05\x0e\x11$,\x03\xe6\x9c'
p174
tp175
Rp176
sg21
V37.776289
p177
sg23
g167
sbsS'0x20258b5095965694'
p178
g4
(g5
g6
Ntp179
Rp180
(dp181
g10
Vz
p182
sg12
V90
p183
sg14
Vz
p184
sg16
g17
(S'\x07\xdc\x05\x0e\x0e7$\x02mi'
p185
tp186
Rp187
sg21
V80
p188
sg23
g178
sbsS'-0x6d92b9fe2f07e1a1'
p189
g4
(g5
g6
Ntp190
Rp191
(dp192
g10
Vz
p193
sg12
V-122.395234
p194
sg14
Vz
p195
sg16
g17
(S'\x07\xdc\x05\x0e\x0f\x02\n\x05Hx'
p196
tp197
Rp198
sg21
V37.776289
p199
sg23
g189
sbsS'0x609355d74ced4e4e'
p200
g4
(g5
g6
Ntp201
Rp202
(dp203
g10
Vx
p204
sg12
V-122.395234
p205
sg14
Vx
p206
sg16
g17
(S'\x07\xdc\x05\x0e\x13 \x1a\x0c\x04\x0f'
p207
tp208
Rp209
sg21
V30
p210
sg23
g200
sbsS'-0x5e08dd1f69fab922'
p211
g4
(g5
g6
Ntp212
Rp213
(dp214
g10
Vx
p215
sg12
V-122.395234
p216
sg14
Vx
p217
sg16
g17
(S'\x07\xdc\x05\x0e\x0e,\x06\n\xb3h'
p218
tp219
Rp220
sg21
V37.776289
p221
sg23
g211
sbsS'-0x79df616317fe6681'
p222
g4
(g5
g6
Ntp223
Rp224
(dp225
g10
Vx
p226
sg12
V-122.395234
p227
sg14
Vx
p228
sg16
g17
(S'\x07\xdc\x05\x0e\x11.\x16\x02\xb9,'
p229
tp230
Rp231
sg21
V37.776289
p232
sg23
g222
sbsS'0x10fad0fb9c3a299e'
p233
g4
(g5
g6
Ntp234
Rp235
(dp236
g10
Vz
p237
sg12
V-122.395234
p238
sg14
Vz
p239
sg16
g17
(S'\x07\xdc\x05\x0e\x0e;\x16\r\xff\xc2'
p240
tp241
Rp242
sg21
V37.776289
p243
sg23
g233
sbsS'0x63b65ebe5874471'
p244
g4
(g5
g6
Ntp245
Rp246
(dp247
g10
Vx
p248
sg12
V-122.395234
p249
sg14
Vx
p250
sg16
g17
(S'\x07\xdc\x05\x0e\x14\x055\x0f\x00\xf9'
p251
tp252
Rp253
sg21
V37.776289
p254
sg23
g244
sbsS'-0x158894e2e4e64acf'
p255
g4
(g5
g6
Ntp256
Rp257
(dp258
g10
Vx
p259
sg12
V-122.395234
p260
sg14
Vx
p261
sg16
g17
(S"\x07\xdc\x05\x0e\x13\x17&\x0f '"
p262
tp263
Rp264
sg21
V37.776289
p265
sg23
g255
sbsS'0x5def3712fecb638a'
p266
g4
(g5
g6
Ntp267
Rp268
(dp269
g10
Vx
p270
sg12
V-122.395234
p271
sg14
Vx
p272
sg16
g17
(S'\x07\xdc\x05\x0e\x13\x1b\x0b\x03\x0e\xc9'
p273
tp274
Rp275
sg21
V37.776289
p276
sg23
g266
sbsS'-0x54033c949b0bb3cc'
p277
g4
(g5
g6
Ntp278
Rp279
(dp280
g10
Vx
p281
sg12
V-122.395234
p282
sg14
Vx
p283
sg16
g17
(S'\x07\xdc\x05\x0e\x0e1%\x04\xfbH'
p284
tp285
Rp286
sg21
V37.776289
p287
sg23
g277
sbsS'0x4a5cbb3f02c716c1'
p288
g4
(g5
g6
Ntp289
Rp290
(dp291
g10
Vx
p292
sg12
V-122.395234
p293
sg14
Vx
p294
sg16
g17
(S'\x07\xdc\x05\x0e\x136\x13\x01\xa8/'
p295
tp296
Rp297
sg21
V37.776289
p298
sg23
g288
sbsS'-0x5afb301a32d3791b'
p299
g4
(g5
g6
Ntp300
Rp301
(dp302
g10
Vx
p303
sg12
V-122.395234
p304
sg14
Vx
p305
sg16
g17
(S'\x07\xdc\x05\x0e\x13 \x15\x07\x9e\x1b'
p306
tp307
Rp308
sg21
V40
p309
sg23
g299
sbsS'0x4b9aa673405a2327'
p310
g4
(g5
g6
Ntp311
Rp312
(dp313
g10
Vx
p314
sg12
V-122.395234
p315
sg14
Vx
p316
sg16
g17
(S'\x07\xdc\x05\x0e\x13\x18\x12\x008!'
p317
tp318
Rp319
sg21
V37.776289
p320
sg23
g310
sbsS'-0x4a9f011f331ca582'
p321
g4
(g5
g6
Ntp322
Rp323
(dp324
g10
Vz
p325
sg12
V90
p326
sg14
Vz
p327
sg16
g17
(S'\x07\xdc\x05\x0e\x0e8\x17\x0c\xe7I'
p328
tp329
Rp330
sg21
V80
p331
sg23
g321
sbsS'0x7172f77e71df2f79'
p332
g4
(g5
g6
Ntp333
Rp334
(dp335
g10
Vx
p336
sg12
V122.395234
p337
sg14
Vx
p338
sg16
g17
(S'\x07\xdc\x05\x0e\x14\x00%\x02;L'
p339
tp340
Rp341
sg21
V37.776289
p342
sg23
g332
sbsS'0x4f3f91945aa477ba'
p343
g4
(g5
g6
Ntp344
Rp345
(dp346
g10
Vx
p347
sg12
V-122.395234
p348
sg14
Vx
p349
sg16
g17
(S'\x07\xdc\x05\x0e\x0e,\x16\x05\xe5\xed'
p350
tp351
Rp352
sg21
V37.776289
p353
sg23
g343
sbsS'0x269c96e72f5bf692'
p354
g4
(g5
g6
Ntp355
Rp356
(dp357
g10
Vx
p358
sg12
V-122.395234
p359
sg14
Vx
p360
sg16
g17
(S'\x07\xdc\x05\x0e\x134\x12\x00\xd5\xef'
p361
tp362
Rp363
sg21
V37.776289
p364
sg23
g354
sbsS'0x311218aa9cbb4238'
p365
g4
(g5
g6
Ntp366
Rp367
(dp368
g10
Vx
p369
sg12
V-122.395234
p370
sg14
Vx
p371
sg16
g17
(S'\x07\xdc\x05\x0e\x13\x00\x17\x0c\xed2'
p372
tp373
Rp374
sg21
V37.776289
p375
sg23
g365
sbsS'-0x541639115ed6557b'
p376
g4
(g5
g6
Ntp377
Rp378
(dp379
g10
Vx
p380
sg12
V-122.395234
p381
sg14
Vx
p382
sg16
g17
(S'\x07\xdc\x05\x0e\x13\x18\x19\x08\x9a\x08'
p383
tp384
Rp385
sg21
V37.776289
p386
sg23
g376
sbsS'0x57e88d48b38ac6bb'
p387
g4
(g5
g6
Ntp388
Rp389
(dp390
g10
Vx
p391
sg12
V-122.395234
p392
sg14
Vx
p393
sg16
g17
(S'\x07\xdc\x05\x0e\x13\x1e\x08\x0e,\x81'
p394
tp395
Rp396
sg21
V39.776289
p397
sg23
g387
sbsS'0x6f57d7b10f5dcc15'
p398
g4
(g5
g6
Ntp399
Rp400
(dp401
g10
Vx
p402
sg12
V-122.395234
p403
sg14
Vx
p404
sg16
g17
(S'\x07\xdc\x05\x0e\x12;7\x08D\xdc'
p405
tp406
Rp407
sg21
V37.776289
p408
sg23
g398
sbsS'-0x78a4c01dd85f7d5d'
p409
g4
(g5
g6
Ntp410
Rp411
(dp412
g10
Vz
p413
sg12
V170
p414
sg14
Vz
p415
sg16
g17
(S'\x07\xdc\x05\x0e\x0f\x06;\r=H'
p416
tp417
Rp418
sg21
V80
p419
sg23
g409
sbsS'0x423f2cedbe55fa15'
p420
g4
(g5
g6
Ntp421
Rp422
(dp423
g10
Vx
p424
sg12
V-122.395234
p425
sg14
Vx
p426
sg16
g17
(S'\x07\xdc\x05\x0e\x13\x00\x17\r\x96\xe7'
p427
tp428
Rp429
sg21
V37.776289
p430
sg23
g420
sbsS'0x3afcab4388efd810'
p431
g4
(g5
g6
Ntp432
Rp433
(dp434
g10
Vz
p435
sg12
V90
p436
sg14
Vz
p437
sg16
g17
(S'\x07\xdc\x05\x0e\x0e7\x0c\x04\xe5\x97'
p438
tp439
Rp440
sg21
V80
p441
sg23
g431
sbsS'0x6b37a924a1e02b56'
p442
g4
(g5
g6
Ntp443
Rp444
(dp445
g10
Vx
p446
sg12
V-122.395234
p447
sg14
Vx
p448
sg16
g17
(S'\x07\xdc\x05\x0e\x134\x18\r\x96\xf1'
p449
tp450
Rp451
sg21
V37.776289
p452
sg23
g442
sbsS'0x3e5459025ac0a9f1'
p453
g4
(g5
g6
Ntp454
Rp455
(dp456
g10
Vx
p457
sg12
V-122.395234
p458
sg14
Vx
p459
sg16
g17
(S'\x07\xdc\x05\x0e\x0e\x133\x04>b'
p460
tp461
Rp462
sg21
V37.776289
p463
sg23
g453
sbsS'0x67e1c7e9a7b5009c'
p464
g4
(g5
g6
Ntp465
Rp466
(dp467
g10
Vx
p468
sg12
V-122.395234
p469
sg14
Vx
p470
sg16
g17
(S'\x07\xdc\x05\x0e\x0e3\x03\x07\x13\x9b'
p471
tp472
Rp473
sg21
V37.776289
p474
sg23
g464
sbsS'-0x7a1dd0a97ff73ab4'
p475
g4
(g5
g6
Ntp476
Rp477
(dp478
g10
Vx
p479
sg12
V-122.395234
p480
sg14
Vx
p481
sg16
g17
(S'\x07\xdc\x05\x0e\x13\x1b6\x07\x99]'
p482
tp483
Rp484
sg21
V37.776289
p485
sg23
g475
sbsS'-0x4728c9c2bac24014'
p486
g4
(g5
g6
Ntp487
Rp488
(dp489
g10
Vx
p490
sg12
V-122.395234
p491
sg14
Vx
p492
sg16
g17
(S'\x07\xdc\x05\x0e\x13&8\x01~e'
p493
tp494
Rp495
sg21
V37.776289
p496
sg23
g486
sbsS'0x2b0415ba07ac5cd8'
p497
g4
(g5
g6
Ntp498
Rp499
(dp500
g10
Vx
p501
sg12
V-122.395234
p502
sg14
Vx
p503
sg16
g17
(S'\x07\xdc\x05\x0e\x11,\t\x07R\x94'
p504
tp505
Rp506
sg21
V37.776289
p507
sg23
g497
sbsS'0x37a2f4725b102e1'
p508
g4
(g5
g6
Ntp509
Rp510
(dp511
g10
Vx
p512
sg12
V170
p513
sg14
Vx
p514
sg16
g17
(S'\x07\xdc\x05\x0e\x10\n\x0c\x0e\x079'
p515
tp516
Rp517
sg21
V80
p518
sg23
g508
sbsS'0x2b247db334adb261'
p519
g4
(g5
g6
Ntp520
Rp521
(dp522
g10
Vx
p523
sg12
V122.395234
p524
sg14
Vx
p525
sg16
g17
(S'\x07\xdc\x05\x0e\x13:2\x02\x1c\xd3'
p526
tp527
Rp528
sg21
V37.776289
p529
sg23
g519
sbsS'0x1a6c675be5931024'
p530
g4
(g5
g6
Ntp531
Rp532
(dp533
g10
Vx
p534
sg12
V-122.395234
p535
sg14
Vx
p536
sg16
g17
(S'\x07\xdc\x05\x0e\x11(,\x05\x84\xcf'
p537
tp538
Rp539
sg21
V37.776289
p540
sg23
g530
sbsS'-0x169e5f2c037b6246'
p541
g4
(g5
g6
Ntp542
Rp543
(dp544
g10
Vx
p545
sg12
V90
p546
sg14
Vx
p547
sg16
g17
(S'\x07\xdc\x05\x0e\x10\n\x06\r3e'
p548
tp549
Rp550
sg21
V80
p551
sg23
g541
sbsS'-0x3ab8508a971253e3'
p552
g4
(g5
g6
Ntp553
Rp554
(dp555
g10
Vx
p556
sg12
V-122.395234
p557
sg14
Vx
p558
sg16
g17
(S'\x07\xdc\x05\x0e\x0e+\x0b\x08Zv'
p559
tp560
Rp561
sg21
V37.776289
p562
sg23
g552
sbsS'0x2016a96eafccdac7'
p563
g4
(g5
g6
Ntp564
Rp565
(dp566
g10
Vx
p567
sg12
V-122.395234
p568
sg14
Vx
p569
sg16
g17
(S'\x07\xdc\x05\x0e\x0e\x13\x10\x08\xc8c'
p570
tp571
Rp572
sg21
V37.776289
p573
sg23
g563
sbsS'0x49248862370c731d'
p574
g4
(g5
g6
Ntp575
Rp576
(dp577
g10
Vx
p578
sg12
V-122.395234
p579
sg14
Vx
p580
sg16
g17
(S'\x07\xdc\x05\x0e\x0e*\x08\x05]\xd6'
p581
tp582
Rp583
sg21
V37.776289
p584
sg23
g574
sbsS'-0x52ab02d6d9ef6ce3'
p585
g4
(g5
g6
Ntp586
Rp587
(dp588
g10
Vx
p589
sg12
V122.395234
p590
sg14
Vx
p591
sg16
g17
(S'\x07\xdc\x05\x0e\x14\x02\x14\x03\xfd\x02'
p592
tp593
Rp594
sg21
V37.776289
p595
sg23
g585
sbsS'-0x402da06d336e46fa'
p596
g4
(g5
g6
Ntp597
Rp598
(dp599
g10
Vx
p600
sg12
V122.395234
p601
sg14
Vx
p602
sg16
g17
(S'\x07\xdc\x05\x0e\x13:\x0c\x00Y\xd7'
p603
tp604
Rp605
sg21
V37.776289
p606
sg23
g596
sbsS'0x3fc5242e2904383'
p607
g4
(g5
g6
Ntp608
Rp609
(dp610
g10
Vz
p611
sg12
V170
p612
sg14
Vz
p613
sg16
g17
(S'\x07\xdc\x05\x0e\x0f\x06*\x08Qj'
p614
tp615
Rp616
sg21
V80
p617
sg23
g607
sbsS'0x6a41b02d300860b'
p618
g4
(g5
g6
Ntp619
Rp620
(dp621
g10
Vx
p622
sg12
V-122.395234
p623
sg14
Vx
p624
sg16
g17
(S'\x07\xdc\x05\x0e\x14\x06\x0b\ta\xef'
p625
tp626
Rp627
sg21
V37.776289
p628
sg23
g618
sbsS'0x1bbaaa80b26d79a3'
p629
g4
(g5
g6
Ntp630
Rp631
(dp632
g10
Vx
p633
sg12
V-122.395234
p634
sg14
Vx
p635
sg16
g17
(S'\x07\xdc\x05\x0e\x0e\x14\x15\x00\xe4g'
p636
tp637
Rp638
sg21
V37.776289
p639
sg23
g629
sbsS'0x548248ef3b40cd7f'
p640
g4
(g5
g6
Ntp641
Rp642
(dp643
g10
Vx
p644
sg12
V-122.395234
p645
sg14
Vx
p646
sg16
g17
(S'\x07\xdc\x05\x0e\x13\x1c\n\x03}\xc1'
p647
tp648
Rp649
sg21
V37.776289
p650
sg23
g640
sbsS'-0x292455af2816f4c0'
p651
g4
(g5
g6
Ntp652
Rp653
(dp654
g10
Vx
p655
sg12
V170
p656
sg14
Vx
p657
sg16
g17
(S'\x07\xdc\x05\x0e\x10\x1f\x02\x0b\xe5\xb0'
p658
tp659
Rp660
sg21
V80
p661
sg23
g651
sbsS'-0x6db9ffd98219673'
p662
g4
(g5
g6
Ntp663
Rp664
(dp665
g10
Vz
p666
sg12
V170
p667
sg14
Vz
p668
sg16
g17
(S'\x07\xdc\x05\x0e\x0f\t\x06\x0e\x1a4'
p669
tp670
Rp671
sg21
V80
p672
sg23
g662
sbsS'0x3a51b7ec917d089f'
p673
g4
(g5
g6
Ntp674
Rp675
(dp676
g10
Vx
p677
sg12
V122.395234
p678
sg14
Vx
p679
sg16
g17
(S'\x07\xdc\x05\x0e\x14\x01.\x04*_'
p680
tp681
Rp682
sg21
V37.776289
p683
sg23
g673
sbsS'0x578789d3636400cd'
p684
g4
(g5
g6
Ntp685
Rp686
(dp687
g10
Vx
p688
sg12
V-122.395234
p689
sg14
Vx
p690
sg16
g17
(S'\x07\xdc\x05\x0e\x13 \x1f\x06\x93\x86'
p691
tp692
Rp693
sg21
V36
p694
sg23
g684
sbsS'0x7608046078205d2c'
p695
g4
(g5
g6
Ntp696
Rp697
(dp698
g10
Vx
p699
sg12
V-122.395234
p700
sg14
Vx
p701
sg16
g17
(S'\x07\xdc\x05\x0e\x14\x04)\x0c}\xe1'
p702
tp703
Rp704
sg21
V37.776289
p705
sg23
g695
sbsS'-0x54e8b0b593202dcf'
p706
g4
(g5
g6
Ntp707
Rp708
(dp709
g10
Vx
p710
sg12
V-122.395234
p711
sg14
Vx
p712
sg16
g17
(S'\x07\xdc\x05\x0e\x1388\x0c\x10\xd9'
p713
tp714
Rp715
sg21
V37.776289
p716
sg23
g706
sbsS'-0x759fa9274f927c80'
p717
g4
(g5
g6
Ntp718
Rp719
(dp720
g10
Vx
p721
sg12
V180
p722
sg14
Vx
p723
sg16
g17
(S'\x07\xdc\x05\x0e\x0f10\x013\x98'
p724
tp725
Rp726
sg21
V80
p727
sg23
g717
sbsS'-0x15ceb31a6f45bc74'
p728
g4
(g5
g6
Ntp729
Rp730
(dp731
g10
Vx
p732
sg12
V-122.395234
p733
sg14
Vx
p734
sg16
g17
(S'\x07\xdc\x05\x0e\x11-0\x03\x9a&'
p735
tp736
Rp737
sg21
V37.776289
p738
sg23
g728
sbsS'-0x498c9ad035ac4177'
p739
g4
(g5
g6
Ntp740
Rp741
(dp742
g10
Vx
p743
sg12
V180
p744
sg14
Vx
p745
sg16
g17
(S'\x07\xdc\x05\x0e\x0e\x17\x00\x01x\xb1'
p746
tp747
Rp748
sg21
V80
p749
sg23
g739
sbsS'0x450dead1496dbeb1'
p750
g4
(g5
g6
Ntp751
Rp752
(dp753
g10
Vx
p754
sg12
V-122.395234
p755
sg14
Vx
p756
sg16
g17
(S'\x07\xdc\x05\x0e\x133;\x07w\xd9'
p757
tp758
Rp759
sg21
V37.776289
p760
sg23
g750
sbsS'0x4b7087d02e70719a'
p761
g4
(g5
g6
Ntp762
Rp763
(dp764
g10
Vx
p765
sg12
V-122.395234
p766
sg14
Vx
p767
sg16
g17
(S'\x07\xdc\x05\x0e\x11\x11\x18\x05\xbd\x7f'
p768
tp769
Rp770
sg21
V37.776289
p771
sg23
g761
sbsS'-0x3e48043739e0e3dd'
p772
g4
(g5
g6
Ntp773
Rp774
(dp775
g10
Vx
p776
sg12
V170
p777
sg14
Vx
p778
sg16
g17
(S'\x07\xdc\x05\x0e\x10\x0e%\x0c\x92\x9d'
p779
tp780
Rp781
sg21
V80
p782
sg23
g772
sbsS'0x27791dc33f300158'
p783
g4
(g5
g6
Ntp784
Rp785
(dp786
g10
Vx
p787
sg12
V-122.395234
p788
sg14
Vx
p789
sg16
g17
(S'\x07\xdc\x05\x0e\x13\x01\x04\x00\xa8\xe1'
p790
tp791
Rp792
sg21
V37.776289
p793
sg23
g783
sbsS'0x3a11091352065adb'
p794
g4
(g5
g6
Ntp795
Rp796
(dp797
g10
Vx
p798
sg12
V-122.395234
p799
sg14
Vx
p800
sg16
g17
(S'\x07\xdc\x05\x0e\x0f0"\x08du'
p801
tp802
Rp803
sg21
V37.776289
p804
sg23
g794
sbsS'-0x6d0e142305b4c9f6'
p805
g4
(g5
g6
Ntp806
Rp807
(dp808
g10
Vz
p809
sg12
V170
p810
sg14
Vz
p811
sg16
g17
(S'\x07\xdc\x05\x0e\x0f\x03\x06\x03\xc2\xa0'
p812
tp813
Rp814
sg21
V80
p815
sg23
g805
sbsS'-0xebbc465aacc7931'
p816
g4
(g5
g6
Ntp817
Rp818
(dp819
g10
Vx
p820
sg12
V-122.395234
p821
sg14
Vx
p822
sg16
g17
(S'\x07\xdc\x05\x0e\x13\x1e\x01\x05P\x9b'
p823
tp824
Rp825
sg21
V37.776289
p826
sg23
g816
sbsS'-0x2892ddfc69c2ffd4'
p827
g4
(g5
g6
Ntp828
Rp829
(dp830
g10
Vx
p831
sg12
V-122.395234
p832
sg14
Vx
p833
sg16
g17
(S'\x07\xdc\x05\x0e\x13\x1e\x0f\t:\xe8'
p834
tp835
Rp836
sg21
V80
p837
sg23
g827
sbsS'-0x7e4b72cc19a865a8'
p838
g4
(g5
g6
Ntp839
Rp840
(dp841
g10
Vx
p842
sg12
V122.395234
p843
sg14
Vx
p844
sg16
g17
(S'\x07\xdc\x05\x0e\x14\x02\x19\x05d\xa5'
p845
tp846
Rp847
sg21
V37.776289
p848
sg23
g838
sbsS'0x74d98eeab0bbcf91'
p849
g4
(g5
g6
Ntp850
Rp851
(dp852
g10
Vx
p853
sg12
V-122.395234
p854
sg14
Vx
p855
sg16
g17
(S'\x07\xdc\x05\x0e\x11\x12(\x0e.\xa5'
p856
tp857
Rp858
sg21
V37.776289
p859
sg23
g849
sbsS'0x18dda8cb097c7f47'
p860
g4
(g5
g6
Ntp861
Rp862
(dp863
g10
Vz
p864
sg12
V-122.395234
p865
sg14
Vz
p866
sg16
g17
(S'\x07\xdc\x05\x0e\x0f\x02\x0f\t\xac\xf3'
p867
tp868
Rp869
sg21
V37.776289
p870
sg23
g860
sbsS'-0x574d1d662aa89bf0'
p871
g4
(g5
g6
Ntp872
Rp873
(dp874
g10
Vx
p875
sg12
V170
p876
sg14
Vx
p877
sg16
g17
(S'\x07\xdc\x05\x0e\x10\x10\x18\x0b\x0eh'
p878
tp879
Rp880
sg21
V80
p881
sg23
g871
sbsS'-0x1bc55828a4090cac'
p882
g4
(g5
g6
Ntp883
Rp884
(dp885
g10
Vx
p886
sg12
V-122.395234
p887
sg14
Vx
p888
sg16
g17
(S'\x07\xdc\x05\x0e\x0e.\x07\x07t\xe3'
p889
tp890
Rp891
sg21
V37.776289
p892
sg23
g882
sbsS'-0x6f6fbdbf15d0195b'
p893
g4
(g5
g6
Ntp894
Rp895
(dp896
g10
Vx
p897
sg12
V122.395234
p898
sg14
Vx
p899
sg16
g17
(S'\x07\xdc\x05\x0e\x13:\x08\x0cn\x89'
p900
tp901
Rp902
sg21
V37.776289
p903
sg23
g893
sbsS'0x5ca3d2bc19c03055'
p904
g4
(g5
g6
Ntp905
Rp906
(dp907
g10
Vx
p908
sg12
V-122.395234
p909
sg14
Vx
p910
sg16
g17
(S'\x07\xdc\x05\x0e\x11/\x07\x0c(\x15'
p911
tp912
Rp913
sg21
V37.776289
p914
sg23
g904
sbsS'0x734d3991fbed8ec'
p915
g4
(g5
g6
Ntp916
Rp917
(dp918
g10
Vx
p919
sg12
V-122.395234
p920
sg14
Vx
p921
sg16
g17
(S'\x07\xdc\x05\x0e\x13#\x1d\x07\x8f?'
p922
tp923
Rp924
sg21
V36
p925
sg23
g915
sbsS'-0xb423618ef51ec6c'
p926
g4
(g5
g6
Ntp927
Rp928
(dp929
g10
Vx
p930
sg12
V-122.395234
p931
sg14
Vx
p932
sg16
g17
(S'\x07\xdc\x05\x0e\x11\x11/\r\\\xdb'
p933
tp934
Rp935
sg21
V37.776289
p936
sg23
g926
sbsS'0x6fea883490ad5a97'
p937
g4
(g5
g6
Ntp938
Rp939
(dp940
g10
Vx
p941
sg12
V-122.395234
p942
sg14
Vx
p943
sg16
g17
(S'\x07\xdc\x05\x0e\x11\x14\x1d\x07\x1c\x01'
p944
tp945
Rp946
sg21
V37.776289
p947
sg23
g937
sbsS'-0x3cf7854cb5f922d0'
p948
g4
(g5
g6
Ntp949
Rp950
(dp951
g10
Vx
p952
sg12
V-122.395234
p953
sg14
Vx
p954
sg16
g17
(S'\x07\xdc\x05\x0e\x11\x15\x01\x05r7'
p955
tp956
Rp957
sg21
V37.776289
p958
sg23
g948
sbsS'0x5296c45d600a594'
p959
g4
(g5
g6
Ntp960
Rp961
(dp962
g10
Vx
p963
sg12
V-122.395234
p964
sg14
Vx
p965
sg16
g17
(S'\x07\xdc\x05\x0e\x13#\x18\x07\x10\x15'
p966
tp967
Rp968
sg21
V36
p969
sg23
g959
sbsS'0x5d026a6a1c08e51e'
p970
g4
(g5
g6
Ntp971
Rp972
(dp973
g10
Vx
p974
sg12
V-122.395234
p975
sg14
Vx
p976
sg16
g17
(S'\x07\xdc\x05\x0e\x13"\x06\x05\x85\xfd'
p977
tp978
Rp979
sg21
V36
p980
sg23
g970
sbsS'0x42cf89f2384c46a3'
p981
g4
(g5
g6
Ntp982
Rp983
(dp984
g10
Vx
p985
sg12
V-122.395234
p986
sg14
Vx
p987
sg16
g17
(S'\x07\xdc\x05\x0e\x1306\x0eM\xf4'
p988
tp989
Rp990
sg21
V37.776289
p991
sg23
g981
sbsS'0x3f6b804db5d058bc'
p992
g4
(g5
g6
Ntp993
Rp994
(dp995
g10
Vz
p996
sg12
V90
p997
sg14
Vz
p998
sg16
g17
(S'\x07\xdc\x05\x0e\x0e9\x18\x0c\xd0b'
p999
tp1000
Rp1001
sg21
V80
p1002
sg23
g992
sbsS'-0x2eb63d1cf537c6f'
p1003
g4
(g5
g6
Ntp1004
Rp1005
(dp1006
g10
Vx
p1007
sg12
V170
p1008
sg14
Vx
p1009
sg16
g17
(S'\x07\xdc\x05\x0e\x10\x1f\x08\x0cd#'
p1010
tp1011
Rp1012
sg21
V80
p1013
sg23
g1003
sbsS'-0x41b95f9a8abc72b0'
p1014
g4
(g5
g6
Ntp1015
Rp1016
(dp1017
g10
Vx
p1018
sg12
V-122.395234
p1019
sg14
Vx
p1020
sg16
g17
(S"\x07\xdc\x05\x0e\x0e',\x07\r\xc8"
p1021
tp1022
Rp1023
sg21
V37.776289
p1024
sg23
g1014
sbsS'0x2d3d09ef1bc55645'
p1025
g4
(g5
g6
Ntp1026
Rp1027
(dp1028
g10
Vx
p1029
sg12
V-122.395234
p1030
sg14
Vx
p1031
sg16
g17
(S'\x07\xdc\x05\x0e\x13!!\x03N\x0b'
p1032
tp1033
Rp1034
sg21
V36
p1035
sg23
g1025
sbsS'-0x529130a61fabf63c'
p1036
g4
(g5
g6
Ntp1037
Rp1038
(dp1039
g10
Vx
p1040
sg12
V-122.395234
p1041
sg14
Vx
p1042
sg16
g17
(S"\x07\xdc\x05\x0e\x11'5\n\x8c\xf4"
p1043
tp1044
Rp1045
sg21
V37.776289
p1046
sg23
g1036
sbsS'-0x3e3c0886ec16d11d'
p1047
g4
(g5
g6
Ntp1048
Rp1049
(dp1050
g10
Vx
p1051
sg12
V-122.395234
p1052
sg14
Vx
p1053
sg16
g17
(S'\x07\xdc\x05\x0e\x13!\x06\x0cg\xe0'
p1054
tp1055
Rp1056
sg21
V36
p1057
sg23
g1047
sbsS'-0x24074c0795801b82'
p1058
g4
(g5
g6
Ntp1059
Rp1060
(dp1061
g10
Vx
p1062
sg12
V-122.395234
p1063
sg14
Vx
p1064
sg16
g17
(S'\x07\xdc\x05\x0e\x0e+*\x07M\x10'
p1065
tp1066
Rp1067
sg21
V37.776289
p1068
sg23
g1058
sbsS'-0x1bf93a2920f29fe1'
p1069
g4
(g5
g6
Ntp1070
Rp1071
(dp1072
g10
Vx
p1073
sg12
V-122.395234
p1074
sg14
Vx
p1075
sg16
g17
(S'\x07\xdc\x05\x0e\x0e5\t\x05\x97\xc6'
p1076
tp1077
Rp1078
sg21
V37.776289
p1079
sg23
g1069
sbsS'0xb72e758117019e7'
p1080
g4
(g5
g6
Ntp1081
Rp1082
(dp1083
g10
Vx
p1084
sg12
V-122.395234
p1085
sg14
Vx
p1086
sg16
g17
(S'\x07\xdc\x05\x0e\x0e\x15\x10\x06E\x80'
p1087
tp1088
Rp1089
sg21
V37.776289
p1090
sg23
g1080
sbsS'0x295acda85e67768c'
p1091
g4
(g5
g6
Ntp1092
Rp1093
(dp1094
g10
Vx
p1095
sg12
V-122.395234
p1096
sg14
Vx
p1097
sg16
g17
(S'\x07\xdc\x05\x0e\x0e-"\x002N'
p1098
tp1099
Rp1100
sg21
V37.776289
p1101
sg23
g1091
sbsS'0x59547cc1ab7810b4'
p1102
g4
(g5
g6
Ntp1103
Rp1104
(dp1105
g10
Vz
p1106
sg12
V170
p1107
sg14
Vz
p1108
sg16
g17
(S'\x07\xdc\x05\x0e\x0f\x06;\x0b\xf0n'
p1109
tp1110
Rp1111
sg21
V80
p1112
sg23
g1102
sbsS'0x6f7dacef4f091af8'
p1113
g4
(g5
g6
Ntp1114
Rp1115
(dp1116
g10
Vx
p1117
sg12
V122.395234
p1118
sg14
Vx
p1119
sg16
g17
(S'\x07\xdc\x05\x0e\x14\x06\x00\t\xa60'
p1120
tp1121
Rp1122
sg21
V37.776289
p1123
sg23
g1113
sbsS'0x201d331e1d110513'
p1124
g4
(g5
g6
Ntp1125
Rp1126
(dp1127
g10
Vx
p1128
sg12
V-122.395234
p1129
sg14
Vx
p1130
sg16
g17
(S'\x07\xdc\x05\x0e\x13.,\t\x0c '
p1131
tp1132
Rp1133
sg21
V37.776289
p1134
sg23
g1124
sbsS'0x7bf9c9b7183c2fec'
p1135
g4
(g5
g6
Ntp1136
Rp1137
(dp1138
g10
Vx
p1139
sg12
V-122.395234
p1140
sg14
Vx
p1141
sg16
g17
(S'\x07\xdc\x05\x0e\x13#\t\x01\xfc\x08'
p1142
tp1143
Rp1144
sg21
V36
p1145
sg23
g1135
sbsS'-0x1c21abc1e1d41f62'
p1146
g4
(g5
g6
Ntp1147
Rp1148
(dp1149
g10
Vx
p1150
sg12
V-122.395234
p1151
sg14
Vx
p1152
sg16
g17
(S'\x07\xdc\x05\x0e\x14\x02,\n\xe2\xd5'
p1153
tp1154
Rp1155
sg21
V37.776289
p1156
sg23
g1146
sbsS'-0x66b28b6f4e9e447'
p1157
g4
(g5
g6
Ntp1158
Rp1159
(dp1160
g10
Vx
p1161
sg12
V-122.395234
p1162
sg14
Vx
p1163
sg16
g17
(S'\x07\xdc\x05\x0e\x11*!\x0c8f'
p1164
tp1165
Rp1166
sg21
V37.776289
p1167
sg23
g1157
sbsS'0x6140df639cbfa77a'
p1168
g4
(g5
g6
Ntp1169
Rp1170
(dp1171
g10
Vz
p1172
sg12
V170
p1173
sg14
Vz
p1174
sg16
g17
(S'\x07\xdc\x05\x0e\x0f\x08\n\x06\xff\xe1'
p1175
tp1176
Rp1177
sg21
V80
p1178
sg23
g1168
sbsS'0x23dbf5afef8ca0f'
p1179
g4
(g5
g6
Ntp1180
Rp1181
(dp1182
g10
Vx
p1183
sg12
V-122.395234
p1184
sg14
Vx
p1185
sg16
g17
(S'\x07\xdc\x05\x0e\x14\x02\x1d\rZl'
p1186
tp1187
Rp1188
sg21
V37.776289
p1189
sg23
g1179
sbsS'0x3be0610e4bebdeb8'
p1190
g4
(g5
g6
Ntp1191
Rp1192
(dp1193
g10
Vz
p1194
sg12
V-122.395234
p1195
sg14
Vz
p1196
sg16
g17
(S'\x07\xdc\x05\x0e\x0f\x02\x08\x05\xd2\xfb'
p1197
tp1198
Rp1199
sg21
V37.776289
p1200
sg23
g1190
sbsS'0xfd3caeda99c0772'
p1201
g4
(g5
g6
Ntp1202
Rp1203
(dp1204
g10
Vx
p1205
sg12
V-122.395234
p1206
sg14
Vx
p1207
sg16
g17
(S'\x07\xdc\x05\x0e\x133\x1b\rb\xcb'
p1208
tp1209
Rp1210
sg21
V37.776289
p1211
sg23
g1201
sbsS'-0x309b102941faaa2f'
p1212
g4
(g5
g6
Ntp1213
Rp1214
(dp1215
g10
Vz
p1216
sg12
V-122.395234
p1217
sg14
Vz
p1218
sg16
g17
(S'\x07\xdc\x05\x0e\x0f\x02\x0c\x0e~\x1d'
p1219
tp1220
Rp1221
sg21
V37.776289
p1222
sg23
g1212
sbsS'-0x5299dc71bc364176'
p1223
g4
(g5
g6
Ntp1224
Rp1225
(dp1226
g10
Vx
p1227
sg12
V-122.395234
p1228
sg14
Vx
p1229
sg16
g17
(S'\x07\xdc\x05\x0e\x13\x19\x1d\x08,\x9c'
p1230
tp1231
Rp1232
sg21
V37.776289
p1233
sg23
g1223
sbsS'0xccd10452ef07a99'
p1234
g4
(g5
g6
Ntp1235
Rp1236
(dp1237
g10
Vx
p1238
sg12
V-122.395234
p1239
sg14
Vx
p1240
sg16
g17
(S'\x07\xdc\x05\x0e\x11%\x1b\n\xde;'
p1241
tp1242
Rp1243
sg21
V37.776289
p1244
sg23
g1234
sbsS'0x1d62bcf654e34803'
p1245
g4
(g5
g6
Ntp1246
Rp1247
(dp1248
g10
Vx
p1249
sg12
V122.395234
p1250
sg14
Vx
p1251
sg16
g17
(S'\x07\xdc\x05\x0e\x13:\x04\x06\xed\xbc'
p1252
tp1253
Rp1254
sg21
V37.776289
p1255
sg23
g1245
sbsS'-0x6778553edb8b0ce9'
p1256
g4
(g5
g6
Ntp1257
Rp1258
(dp1259
g10
Vx
p1260
sg12
V-122.395234
p1261
sg14
Vx
p1262
sg16
g17
(S'\x07\xdc\x05\x0e\x13 \x00\x00vE'
p1263
tp1264
Rp1265
sg21
V40
p1266
sg23
g1256
sbsS'0x8c410aff2656905'
p1267
g4
(g5
g6
Ntp1268
Rp1269
(dp1270
g10
Vx
p1271
sg12
V-122.395234
p1272
sg14
Vx
p1273
sg16
g17
(S'\x07\xdc\x05\x0e\x1363\x07W\xe8'
p1274
tp1275
Rp1276
sg21
V37.776289
p1277
sg23
g1267
sbssS'response'
p1278
(dp1279
S'pwstations'
p1280
(lp1281
g4
(cmodel
PersonalStation
p1282
g6
Ntp1283
Rp1284
(dp1285
S'distance'
p1286
I0
sS'stationid'
p1287
VKCASANFR53
p1288
sbag4
(g1282
g6
Ntp1289
Rp1290
(dp1291
g1286
I1
sg1287
VKCASANFR108
p1292
sbag4
(g1282
g6
Ntp1293
Rp1294
(dp1295
g1286
I0
sg1287
VKCASANFR14
p1296
sbag4
(g1282
g6
Ntp1297
Rp1298
(dp1299
g1286
I0
sg1287
VKCASANFR113
p1300
sbag4
(g1282
g6
Ntp1301
Rp1302
(dp1303
g1286
I1
sg1287
VKCASANFR131
p1304
sbag4
(g1282
g6
Ntp1305
Rp1306
(dp1307
g1286
I2
sg1287
VKCASANFR58
p1308
sbag4
(g1282
g6
Ntp1309
Rp1310
(dp1311
g1286
I2
sg1287
VKCASANFR79
p1312
sbag4
(g1282
g6
Ntp1313
Rp1314
(dp1315
g1286
I1
sg1287
VKCASANFR102
p1316
sbag4
(g1282
g6
Ntp1317
Rp1318
(dp1319
g1286
I4
sg1287
VMCQ147
p1320
sbag4
(g1282
g6
Ntp1321
Rp1322
(dp1323
g1286
I3
sg1287
VKPCASANF2
p1324
sbag4
(g1282
g6
Ntp1325
Rp1326
(dp1327
g1286
I3
sg1287
VKCASANFR114
p1328
sbag4
(g1282
g6
Ntp1329
Rp1330
(dp1331
g1286
I3
sg1287
VMSFOC1
p1332
sbag4
(g1282
g6
Ntp1333
Rp1334
(dp1335
g1286
I2
sg1287
VKCASANFR137
p1336
sbag4
(g1282
g6
Ntp1337
Rp1338
(dp1339
g1286
I4
sg1287
VKCASANFR3
p1340
sbag4
(g1282
g6
Ntp1341
Rp1342
(dp1343
g1286
I4
sg1287
VKCASANFR86
p1344
sbag4
(g1282
g6
Ntp1345
Rp1346
(dp1347
g1286
I4
sg1287
VKCASANFR98
p1348
sbag4
(g1282
g6
Ntp1349
Rp1350
(dp1351
g1286
I5
sg1287
VKCASANFR73
p1352
sbag4
(g1282
g6
Ntp1353
Rp1354
(dp1355
g1286
I4
sg1287
VKCASANFR76
p1356
sbag4
(g1282
g6
Ntp1357
Rp1358
(dp1359
g1286
I5
sg1287
VKCASANFR135
p1360
sbag4
(g1282
g6
Ntp1361
Rp1362
(dp1363
g1286
I5
sg1287
VKCASANFR110
p1364
sbag4
(g1282
g6
Ntp1365
Rp1366
(dp1367
g1286
I6
sg1287
VMC9629
p1368
sbag4
(g1282
g6
Ntp1369
Rp1370
(dp1371
g1286
I5
sg1287
VKCASANFR34
p1372
sbag4
(g1282
g6
Ntp1373
Rp1374
(dp1375
g1286
I6
sg1287
VKCASANFR70
p1376
sbag4
(g1282
g6
Ntp1377
Rp1378
(dp1379
g1286
I5
sg1287
VKCASANFR82
p1380
sbag4
(g1282
g6
Ntp1381
Rp1382
(dp1383
g1286
I6
sg1287
VKCASANFR133
p1384
sbag4
(g1282
g6
Ntp1385
Rp1386
(dp1387
g1286
I6
sg1287
VKCASANFR46
p1388
sbag4
(g1282
g6
Ntp1389
Rp1390
(dp1391
g1286
I6
sg1287
VKCASANFR72
p1392
sbag4
(g1282
g6
Ntp1393
Rp1394
(dp1395
g1286
I7
sg1287
VKCASANFR130
p1396
sbag4
(g1282
g6
Ntp1397
Rp1398
(dp1399
g1286
I7
sg1287
VKCASANFR109
p1400
sbag4
(g1282
g6
Ntp1401
Rp1402
(dp1403
g1286
I6
sg1287
VKCASANFR128
p1404
sbag4
(g1282
g6
Ntp1405
Rp1406
(dp1407
g1286
I7
sg1287
VKCASANFR97
p1408
sbag4
(g1282
g6
Ntp1409
Rp1410
(dp1411
g1286
I8
sg1287
VKCAALAME6
p1412
sbag4
(g1282
g6
Ntp1413
Rp1414
(dp1415
g1286
I8
sg1287
VMD8533
p1416
sbag4
(g1282
g6
Ntp1417
Rp1418
(dp1419
g1286
I10
sg1287
VKCASANFR100
p1420
sbag4
(g1282
g6
Ntp1421
Rp1422
(dp1423
g1286
I10
sg1287
VMAS891
p1424
sbasS'airports'
p1425
(lp1426
g4
(cmodel
AirportStation
p1427
g6
Ntp1428
Rp1429
(dp1430
S'icao'
p1431
VKOAK
p1432
sS'city'
p1433
VOakland
p1434
sg12
V-122.22000122
p1435
sg21
V37.72000122
p1436
sbag4
(g1427
g6
Ntp1437
Rp1438
(dp1439
g1431
VKSFO
p1440
sg1433
VSan Francisco
p1441
sg12
V-122.37000275
p1442
sg21
V37.61999893
p1443
sbag4
(g1427
g6
Ntp1444
Rp1445
(dp1446
g1431
VKHWD
p1447
sg1433
VHayward
p1448
sg12
V-122.12000275
p1449
sg21
V37.65999985
p1450
sbag4
(g1427
g6
Ntp1451
Rp1452
(dp1453
g1431
VKHAF
p1454
sg1433
VHalf Moon Bay
p1455
sg12
V-122.50000000
p1456
sg21
V37.50999832
p1457
sbass.