(dp0
S'request'
p1
(dp2
S'0x2d09427ce5af20c3'
p3
ccopy_reg
_reconstructor
p4
(cmodel
Request
p5
c__builtin__
object
p6
Ntp7
Rp8
(dp9
S'dateS'
p10
Vz
p11
sS'longitude'
p12
V90
p13
sS'dateE'
p14
Vz
p15
sS'time'
p16
cdatetime
datetime
p17
(S'\x07\xdc\x05\x0e\x0e88\x04KQ'
p18
tp19
Rp20
sS'latitude'
p21
V80
p22
sS'id'
p23
g3
sbsS'0x194b675879950e64'
p24
g4
(g5
g6
Ntp25
Rp26
(dp27
g10
Vx
p28
sg12
V-122.395234
p29
sg14
Vx
p30
sg16
g17
(S'\x07\xdc\x05\x0e\x0e1;\x0f\n\xc2'
p31
tp32
Rp33
sg21
V37.776289
p34
sg23
g24
sbsS'0x54e9cd926e7f9dfe'
p35
g4
(g5
g6
Ntp36
Rp37
(dp38
g10
Vx
p39
sg12
V-122.395234
p40
sg14
Vx
p41
sg16
g17
(S'\x07\xdc\x05\x0e\x0e4\x0c\x04\x16\xcf'
p42
tp43
Rp44
sg21
V37.776289
p45
sg23
g35
sbsS'0x3f6b804db5d058bc'
p46
g4
(g5
g6
Ntp47
Rp48
(dp49
g10
Vz
p50
sg12
V90
p51
sg14
Vz
p52
sg16
g17
(S'\x07\xdc\x05\x0e\x0e9\x18\x0c\xd0b'
p53
tp54
Rp55
sg21
V80
p56
sg23
g46
sbsS'0x49248862370c731d'
p57
g4
(g5
g6
Ntp58
Rp59
(dp60
g10
Vx
p61
sg12
V-122.395234
p62
sg14
Vx
p63
sg16
g17
(S'\x07\xdc\x05\x0e\x0e*\x08\x05]\xd6'
p64
tp65
Rp66
sg21
V37.776289
p67
sg23
g57
sbsS'0x1355de66eb7072cc'
p68
g4
(g5
g6
Ntp69
Rp70
(dp71
g10
Vx
p72
sg12
V-122.395234
p73
sg14
Vx
p74
sg16
g17
(S'\x07\xdc\x05\x0e\x0e-,\x0c\x82\xfc'
p75
tp76
Rp77
sg21
V37.776289
p78
sg23
g68
sbsS'-0x1d0e6b6f905b762b'
p79
g4
(g5
g6
Ntp80
Rp81
(dp82
g10
Vz
p83
sg12
V90
p84
sg14
Vz
p85
sg16
g17
(S'\x07\xdc\x05\x0e\x0e94\t\xd6\xb8'
p86
tp87
Rp88
sg21
V80
p89
sg23
g79
sbsS'-0x41b95f9a8abc72b0'
p90
g4
(g5
g6
Ntp91
Rp92
(dp93
g10
Vx
p94
sg12
V-122.395234
p95
sg14
Vx
p96
sg16
g17
(S"\x07\xdc\x05\x0e\x0e',\x07\r\xc8"
p97
tp98
Rp99
sg21
V37.776289
p100
sg23
g90
sbsS'0x67e1c7e9a7b5009c'
p101
g4
(g5
g6
Ntp102
Rp103
(dp104
g10
Vx
p105
sg12
V-122.395234
p106
sg14
Vx
p107
sg16
g17
(S'\x07\xdc\x05\x0e\x0e3\x03\x07\x13\x9b'
p108
tp109
Rp110
sg21
V37.776289
p111
sg23
g101
sbsS'0xe403be237950991'
p112
g4
(g5
g6
Ntp113
Rp114
(dp115
g10
Vz
p116
sg12
V170
p117
sg14
Vz
p118
sg16
g17
(S'\x07\xdc\x05\x0e\x0f\x02\x1c\x06\x9bb'
p119
tp120
Rp121
sg21
V80
p122
sg23
g112
sbsS'-0x6d0e142305b4c9f6'
p123
g4
(g5
g6
Ntp124
Rp125
(dp126
g10
Vz
p127
sg12
V170
p128
sg14
Vz
p129
sg16
g17
(S'\x07\xdc\x05\x0e\x0f\x03\x06\x03\xc2\xa0'
p130
tp131
Rp132
sg21
V80
p133
sg23
g123
sbsS'-0x24074c0795801b82'
p134
g4
(g5
g6
Ntp135
Rp136
(dp137
g10
Vx
p138
sg12
V-122.395234
p139
sg14
Vx
p140
sg16
g17
(S'\x07\xdc\x05\x0e\x0e+*\x07M\x10'
p141
tp142
Rp143
sg21
V37.776289
p144
sg23
g134
sbsS'-0xcdc85bbddd186b5'
p145
g4
(g5
g6
Ntp146
Rp147
(dp148
g10
Vz
p149
sg12
V90
p150
sg14
Vz
p151
sg16
g17
(S'\x07\xdc\x05\x0e\x0e77\x06\xeb!'
p152
tp153
Rp154
sg21
V80
p155
sg23
g145
sbsS'-0x1bf93a2920f29fe1'
p156
g4
(g5
g6
Ntp157
Rp158
(dp159
g10
Vx
p160
sg12
V-122.395234
p161
sg14
Vx
p162
sg16
g17
(S'\x07\xdc\x05\x0e\x0e5\t\x05\x97\xc6'
p163
tp164
Rp165
sg21
V37.776289
p166
sg23
g156
sbsS'0xb72e758117019e7'
p167
g4
(g5
g6
Ntp168
Rp169
(dp170
g10
Vx
p171
sg12
V-122.395234
p172
sg14
Vx
p173
sg16
g17
(S'\x07\xdc\x05\x0e\x0e\x15\x10\x06E\x80'
p174
tp175
Rp176
sg21
V37.776289
p177
sg23
g167
sbsS'0x49f21d2c59ca3e23'
p178
g4
(g5
g6
Ntp179
Rp180
(dp181
g10
Vz
p182
sg12
V170
p183
sg14
Vz
p184
sg16
g17
(S'\x07\xdc\x05\x0e\x0f\x0c6\tu\xc1'
p185
tp186
Rp187
sg21
V80
p188
sg23
g178
sbsS'0x295acda85e67768c'
p189
g4
(g5
g6
Ntp190
Rp191
(dp192
g10
Vx
p193
sg12
V-122.395234
p194
sg14
Vx
p195
sg16
g17
(S'\x07\xdc\x05\x0e\x0e-"\x002N'
p196
tp197
Rp198
sg21
V37.776289
p199
sg23
g189
sbsS'0x20258b5095965694'
p200
g4
(g5
g6
Ntp201
Rp202
(dp203
g10
Vz
p204
sg12
V90
p205
sg14
Vz
p206
sg16
g17
(S'\x07\xdc\x05\x0e\x0e7$\x02mi'
p207
tp208
Rp209
sg21
V80
p210
sg23
g200
sbsS'0x59547cc1ab7810b4'
p211
g4
(g5
g6
Ntp212
Rp213
(dp214
g10
Vz
p215
sg12
V170
p216
sg14
Vz
p217
sg16
g17
(S'\x07\xdc\x05\x0e\x0f\x06;\x0b\xf0n'
p218
tp219
Rp220
sg21
V80
p221
sg23
g211
sbsS'0x18dda8cb097c7f47'
p222
g4
(g5
g6
Ntp223
Rp224
(dp225
g10
Vz
p226
sg12
V-122.395234
p227
sg14
Vz
p228
sg16
g17
(S'\x07\xdc\x05\x0e\x0f\x02\x0f\t\xac\xf3'
p229
tp230
Rp231
sg21
V37.776289
p232
sg23
g222
sbsS'-0x6d92b9fe2f07e1a1'
p233
g4
(g5
g6
Ntp234
Rp235
(dp236
g10
Vz
p237
sg12
V-122.395234
p238
sg14
Vz
p239
sg16
g17
(S'\x07\xdc\x05\x0e\x0f\x02\n\x05Hx'
p240
tp241
Rp242
sg21
V37.776289
p243
sg23
g233
sbsS'-0x78a4c01dd85f7d5d'
p244
g4
(g5
g6
Ntp245
Rp246
(dp247
g10
Vz
p248
sg12
V170
p249
sg14
Vz
p250
sg16
g17
(S'\x07\xdc\x05\x0e\x0f\x06;\r=H'
p251
tp252
Rp253
sg21
V80
p254
sg23
g244
sbsS'0x10fad0fb9c3a299e'
p255
g4
(g5
g6
Ntp256
Rp257
(dp258
g10
Vz
p259
sg12
V-122.395234
p260
sg14
Vz
p261
sg16
g17
(S'\x07\xdc\x05\x0e\x0e;\x16\r\xff\xc2'
p262
tp263
Rp264
sg21
V37.776289
p265
sg23
g255
sbsS'-0x5e08dd1f69fab922'
p266
g4
(g5
g6
Ntp267
Rp268
(dp269
g10
Vx
p270
sg12
V-122.395234
p271
sg14
Vx
p272
sg16
g17
(S'\x07\xdc\x05\x0e\x0e,\x06\n\xb3h'
p273
tp274
Rp275
sg21
V37.776289
p276
sg23
g266
sbsS'-0x3ab8508a971253e3'
p277
g4
(g5
g6
Ntp278
Rp279
(dp280
g10
Vx
p281
sg12
V-122.395234
p282
sg14
Vx
p283
sg16
g17
(S'\x07\xdc\x05\x0e\x0e+\x0b\x08Zv'
p284
tp285
Rp286
sg21
V37.776289
p287
sg23
g277
sbsS'0x2016a96eafccdac7'
p288
g4
(g5
g6
Ntp289
Rp290
(dp291
g10
Vx
p292
sg12
V-122.395234
p293
sg14
Vx
p294
sg16
g17
(S'\x07\xdc\x05\x0e\x0e\x13\x10\x08\xc8c'
p295
tp296
Rp297
sg21
V37.776289
p298
sg23
g288
sbsS'-0x498c9ad035ac4177'
p299
g4
(g5
g6
Ntp300
Rp301
(dp302
g10
Vx
p303
sg12
V180
p304
sg14
Vx
p305
sg16
g17
(S'\x07\xdc\x05\x0e\x0e\x17\x00\x01x\xb1'
p306
tp307
Rp308
sg21
V80
p309
sg23
g299
sbsS'0x6140df639cbfa77a'
p310
g4
(g5
g6
Ntp311
Rp312
(dp313
g10
Vz
p314
sg12
V170
p315
sg14
Vz
p316
sg16
g17
(S'\x07\xdc\x05\x0e\x0f\x08\n\x06\xff\xe1'
p317
tp318
Rp319
sg21
V80
p320
sg23
g310
sbsS'-0x1bc55828a4090cac'
p321
g4
(g5
g6
Ntp322
Rp323
(dp324
g10
Vx
p325
sg12
V-122.395234
p326
sg14
Vx
p327
sg16
g17
(S'\x07\xdc\x05\x0e\x0e.\x07\x07t\xe3'
p328
tp329
Rp330
sg21
V37.776289
p331
sg23
g321
sbsS'0x3be0610e4bebdeb8'
p332
g4
(g5
g6
Ntp333
Rp334
(dp335
g10
Vz
p336
sg12
V-122.395234
p337
sg14
Vz
p338
sg16
g17
(S'\x07\xdc\x05\x0e\x0f\x02\x08\x05\xd2\xfb'
p339
tp340
Rp341
sg21
V37.776289
p342
sg23
g332
sbsS'0x3fc5242e2904383'
p343
g4
(g5
g6
Ntp344
Rp345
(dp346
g10
Vz
p347
sg12
V170
p348
sg14
Vz
p349
sg16
g17
(S'\x07\xdc\x05\x0e\x0f\x06*\x08Qj'
p350
tp351
Rp352
sg21
V80
p353
sg23
g343
sbsS'-0x309b102941faaa2f'
p354
g4
(g5
g6
Ntp355
Rp356
(dp357
g10
Vz
p358
sg12
V-122.395234
p359
sg14
Vz
p360
sg16
g17
(S'\x07\xdc\x05\x0e\x0f\x02\x0c\x0e~\x1d'
p361
tp362
Rp363
sg21
V37.776289
p364
sg23
g354
sbsS'0x3e5459025ac0a9f1'
p365
g4
(g5
g6
Ntp366
Rp367
(dp368
g10
Vx
p369
sg12
V-122.395234
p370
sg14
Vx
p371
sg16
g17
(S'\x07\xdc\x05\x0e\x0e\x133\x04>b'
p372
tp373
Rp374
sg21
V37.776289
p375
sg23
g365
sbsS'0x1bbaaa80b26d79a3'
p376
g4
(g5
g6
Ntp377
Rp378
(dp379
g10
Vx
p380
sg12
V-122.395234
p381
sg14
Vx
p382
sg16
g17
(S'\x07\xdc\x05\x0e\x0e\x14\x15\x00\xe4g'
p383
tp384
Rp385
sg21
V37.776289
p386
sg23
g376
sbsS'-0x54033c949b0bb3cc'
p387
g4
(g5
g6
Ntp388
Rp389
(dp390
g10
Vx
p391
sg12
V-122.395234
p392
sg14
Vx
p393
sg16
g17
(S'\x07\xdc\x05\x0e\x0e1%\x04\xfbH'
p394
tp395
Rp396
sg21
V37.776289
p397
sg23
g387
sbsS'0x3afcab4388efd810'
p398
g4
(g5
g6
Ntp399
Rp400
(dp401
g10
Vz
p402
sg12
V90
p403
sg14
Vz
p404
sg16
g17
(S'\x07\xdc\x05\x0e\x0e7\x0c\x04\xe5\x97'
p405
tp406
Rp407
sg21
V80
p408
sg23
g398
sbsS'-0x6db9ffd98219673'
p409
g4
(g5
g6
Ntp410
Rp411
(dp412
g10
Vz
p413
sg12
V170
p414
sg14
Vz
p415
sg16
g17
(S'\x07\xdc\x05\x0e\x0f\t\x06\x0e\x1a4'
p416
tp417
Rp418
sg21
V80
p419
sg23
g409
sbsS'-0x4a9f011f331ca582'
p420
g4
(g5
g6
Ntp421
Rp422
(dp423
g10
Vz
p424
sg12
V90
p425
sg14
Vz
p426
sg16
g17
(S'\x07\xdc\x05\x0e\x0e8\x17\x0c\xe7I'
p427
tp428
Rp429
sg21
V80
p430
sg23
g420
sbsS'0x4f3f91945aa477ba'
p431
g4
(g5
g6
Ntp432
Rp433
(dp434
g10
Vx
p435
sg12
V-122.395234
p436
sg14
Vx
p437
sg16
g17
(S'\x07\xdc\x05\x0e\x0e,\x16\x05\xe5\xed'
p438
tp439
Rp440
sg21
V37.776289
p441
sg23
g431
sbssS'response'
p442
(dp443
S'pwstations'
p444
(lp445
g4
(cmodel
PersonalStation
p446
g6
Ntp447
Rp448
(dp449
S'distance'
p450
I0
sS'stationid'
p451
VKCASANFR53
p452
sbag4
(g446
g6
Ntp453
Rp454
(dp455
g450
I1
sg451
VKCASANFR108
p456
sbag4
(g446
g6
Ntp457
Rp458
(dp459
g450
I0
sg451
VKCASANFR14
p460
sbag4
(g446
g6
Ntp461
Rp462
(dp463
g450
I0
sg451
VKCASANFR113
p464
sbag4
(g446
g6
Ntp465
Rp466
(dp467
g450
I1
sg451
VKCASANFR131
p468
sbag4
(g446
g6
Ntp469
Rp470
(dp471
g450
I2
sg451
VKCASANFR58
p472
sbag4
(g446
g6
Ntp473
Rp474
(dp475
g450
I2
sg451
VKCASANFR79
p476
sbag4
(g446
g6
Ntp477
Rp478
(dp479
g450
I2
sg451
VKCASANFR49
p480
sbag4
(g446
g6
Ntp481
Rp482
(dp483
g450
I1
sg451
VKCASANFR102
p484
sbag4
(g446
g6
Ntp485
Rp486
(dp487
g450
I4
sg451
VMCQ147
p488
sbag4
(g446
g6
Ntp489
Rp490
(dp491
g450
I3
sg451
VKPCASANF2
p492
sbag4
(g446
g6
Ntp493
Rp494
(dp495
g450
I3
sg451
VKCASANFR114
p496
sbag4
(g446
g6
Ntp497
Rp498
(dp499
g450
I3
sg451
VMSFOC1
p500
sbag4
(g446
g6
Ntp501
Rp502
(dp503
g450
I2
sg451
VKCASANFR137
p504
sbag4
(g446
g6
Ntp505
Rp506
(dp507
g450
I4
sg451
VKCASANFR3
p508
sbag4
(g446
g6
Ntp509
Rp510
(dp511
g450
I4
sg451
VKCASANFR86
p512
sbag4
(g446
g6
Ntp513
Rp514
(dp515
g450
I4
sg451
VKCASANFR98
p516
sbag4
(g446
g6
Ntp517
Rp518
(dp519
g450
I5
sg451
VKCASANFR73
p520
sbag4
(g446
g6
Ntp521
Rp522
(dp523
g450
I4
sg451
VKCASANFR76
p524
sbag4
(g446
g6
Ntp525
Rp526
(dp527
g450
I5
sg451
VKCASANFR135
p528
sbag4
(g446
g6
Ntp529
Rp530
(dp531
g450
I5
sg451
VKCASANFR110
p532
sbag4
(g446
g6
Ntp533
Rp534
(dp535
g450
I6
sg451
VMC9629
p536
sbag4
(g446
g6
Ntp537
Rp538
(dp539
g450
I5
sg451
VKCASANFR34
p540
sbag4
(g446
g6
Ntp541
Rp542
(dp543
g450
I6
sg451
VKCASANFR70
p544
sbag4
(g446
g6
Ntp545
Rp546
(dp547
g450
I5
sg451
VKCASANFR82
p548
sbag4
(g446
g6
Ntp549
Rp550
(dp551
g450
I6
sg451
VKCASANFR133
p552
sbag4
(g446
g6
Ntp553
Rp554
(dp555
g450
I6
sg451
VKCASANFR46
p556
sbag4
(g446
g6
Ntp557
Rp558
(dp559
g450
I6
sg451
VKCASANFR72
p560
sbag4
(g446
g6
Ntp561
Rp562
(dp563
g450
I7
sg451
VKCASANFR130
p564
sbag4
(g446
g6
Ntp565
Rp566
(dp567
g450
I7
sg451
VKCASANFR109
p568
sbag4
(g446
g6
Ntp569
Rp570
(dp571
g450
I6
sg451
VKCASANFR128
p572
sbag4
(g446
g6
Ntp573
Rp574
(dp575
g450
I7
sg451
VKCASANFR97
p576
sbag4
(g446
g6
Ntp577
Rp578
(dp579
g450
I8
sg451
VKCAALAME6
p580
sbag4
(g446
g6
Ntp581
Rp582
(dp583
g450
I8
sg451
VMD8533
p584
sbag4
(g446
g6
Ntp585
Rp586
(dp587
g450
I10
sg451
VKCASANFR100
p588
sbasS'airports'
p589
(lp590
g4
(cmodel
AirportStation
p591
g6
Ntp592
Rp593
(dp594
S'icao'
p595
VKOAK
p596
sS'city'
p597
VOakland
p598
sg12
V-122.22000122
p599
sg21
V37.72000122
p600
sbag4
(g591
g6
Ntp601
Rp602
(dp603
g595
VKSFO
p604
sg597
VSan Francisco
p605
sg12
V-122.37000275
p606
sg21
V37.61999893
p607
sbag4
(g591
g6
Ntp608
Rp609
(dp610
g595
VKHWD
p611
sg597
VHayward
p612
sg12
V-122.12000275
p613
sg21
V37.65999985
p614
sbag4
(g591
g6
Ntp615
Rp616
(dp617
g595
VKHAF
p618
sg597
VHalf Moon Bay
p619
sg12
V-122.50000000
p620
sg21
V37.50999832
p621
sbass.