(dp0
S'request'
p1
(dp2
S'-0x759fa9274f927c80'
p3
ccopy_reg
_reconstructor
p4
(cmodel
Request
p5
c__builtin__
object
p6
Ntp7
Rp8
(dp9
S'dateS'
p10
Vx
p11
sS'longitude'
p12
V180
p13
sS'dateE'
p14
Vx
p15
sS'time'
p16
cdatetime
datetime
p17
(S'\x07\xdc\x05\x0e\x0f10\x013\x98'
p18
tp19
Rp20
sS'latitude'
p21
V80
p22
sS'id'
p23
g3
sbsS'0x2d09427ce5af20c3'
p24
g4
(g5
g6
Ntp25
Rp26
(dp27
g10
Vz
p28
sg12
V90
p29
sg14
Vz
p30
sg16
g17
(S'\x07\xdc\x05\x0e\x0e88\x04KQ'
p31
tp32
Rp33
sg21
V80
p34
sg23
g24
sbsS'-0x78a4c01dd85f7d5d'
p35
g4
(g5
g6
Ntp36
Rp37
(dp38
g10
Vz
p39
sg12
V170
p40
sg14
Vz
p41
sg16
g17
(S'\x07\xdc\x05\x0e\x0f\x06;\r=H'
p42
tp43
Rp44
sg21
V80
p45
sg23
g35
sbsS'0x54e9cd926e7f9dfe'
p46
g4
(g5
g6
Ntp47
Rp48
(dp49
g10
Vx
p50
sg12
V-122.395234
p51
sg14
Vx
p52
sg16
g17
(S'\x07\xdc\x05\x0e\x0e4\x0c\x04\x16\xcf'
p53
tp54
Rp55
sg21
V37.776289
p56
sg23
g46
sbsS'0x3f6b804db5d058bc'
p57
g4
(g5
g6
Ntp58
Rp59
(dp60
g10
Vz
p61
sg12
V90
p62
sg14
Vz
p63
sg16
g17
(S'\x07\xdc\x05\x0e\x0e9\x18\x0c\xd0b'
p64
tp65
Rp66
sg21
V80
p67
sg23
g57
sbsS'-0x498c9ad035ac4177'
p68
g4
(g5
g6
Ntp69
Rp70
(dp71
g10
Vx
p72
sg12
V180
p73
sg14
Vx
p74
sg16
g17
(S'\x07\xdc\x05\x0e\x0e\x17\x00\x01x\xb1'
p75
tp76
Rp77
sg21
V80
p78
sg23
g68
sbsS'-0x77f101605418c321'
p79
g4
(g5
g6
Ntp80
Rp81
(dp82
g10
Vx
p83
sg12
V180
p84
sg14
Vx
p85
sg16
g17
(S'\x07\xdc\x05\x0e\x0f1:\x01\x1e('
p86
tp87
Rp88
sg21
V91
p89
sg23
g79
sbsS'0x1355de66eb7072cc'
p90
g4
(g5
g6
Ntp91
Rp92
(dp93
g10
Vx
p94
sg12
V-122.395234
p95
sg14
Vx
p96
sg16
g17
(S'\x07\xdc\x05\x0e\x0e-,\x0c\x82\xfc'
p97
tp98
Rp99
sg21
V37.776289
p100
sg23
g90
sbsS'-0x1d0e6b6f905b762b'
p101
g4
(g5
g6
Ntp102
Rp103
(dp104
g10
Vz
p105
sg12
V90
p106
sg14
Vz
p107
sg16
g17
(S'\x07\xdc\x05\x0e\x0e94\t\xd6\xb8'
p108
tp109
Rp110
sg21
V80
p111
sg23
g101
sbsS'-0x41b95f9a8abc72b0'
p112
g4
(g5
g6
Ntp113
Rp114
(dp115
g10
Vx
p116
sg12
V-122.395234
p117
sg14
Vx
p118
sg16
g17
(S"\x07\xdc\x05\x0e\x0e',\x07\r\xc8"
p119
tp120
Rp121
sg21
V37.776289
p122
sg23
g112
sbsS'0x295acda85e67768c'
p123
g4
(g5
g6
Ntp124
Rp125
(dp126
g10
Vx
p127
sg12
V-122.395234
p128
sg14
Vx
p129
sg16
g17
(S'\x07\xdc\x05\x0e\x0e-"\x002N'
p130
tp131
Rp132
sg21
V37.776289
p133
sg23
g123
sbsS'0x3a11091352065adb'
p134
g4
(g5
g6
Ntp135
Rp136
(dp137
g10
Vx
p138
sg12
V-122.395234
p139
sg14
Vx
p140
sg16
g17
(S'\x07\xdc\x05\x0e\x0f0"\x08du'
p141
tp142
Rp143
sg21
V37.776289
p144
sg23
g134
sbsS'0xe403be237950991'
p145
g4
(g5
g6
Ntp146
Rp147
(dp148
g10
Vz
p149
sg12
V170
p150
sg14
Vz
p151
sg16
g17
(S'\x07\xdc\x05\x0e\x0f\x02\x1c\x06\x9bb'
p152
tp153
Rp154
sg21
V80
p155
sg23
g145
sbsS'0x7ec9bfd31b564c4c'
p156
g4
(g5
g6
Ntp157
Rp158
(dp159
g10
Vx
p160
sg12
V-122.395234
p161
sg14
Vx
p162
sg16
g17
(S'\x07\xdc\x05\x0e\x0f1\x15\x00\xba\x08'
p163
tp164
Rp165
sg21
V37.776289
p166
sg23
g156
sbsS'-0x6d0e142305b4c9f6'
p167
g4
(g5
g6
Ntp168
Rp169
(dp170
g10
Vz
p171
sg12
V170
p172
sg14
Vz
p173
sg16
g17
(S'\x07\xdc\x05\x0e\x0f\x03\x06\x03\xc2\xa0'
p174
tp175
Rp176
sg21
V80
p177
sg23
g167
sbsS'0x49f21d2c59ca3e23'
p178
g4
(g5
g6
Ntp179
Rp180
(dp181
g10
Vz
p182
sg12
V170
p183
sg14
Vz
p184
sg16
g17
(S'\x07\xdc\x05\x0e\x0f\x0c6\tu\xc1'
p185
tp186
Rp187
sg21
V80
p188
sg23
g178
sbsS'-0xcdc85bbddd186b5'
p189
g4
(g5
g6
Ntp190
Rp191
(dp192
g10
Vz
p193
sg12
V90
p194
sg14
Vz
p195
sg16
g17
(S'\x07\xdc\x05\x0e\x0e77\x06\xeb!'
p196
tp197
Rp198
sg21
V80
p199
sg23
g189
sbsS'-0x1bf93a2920f29fe1'
p200
g4
(g5
g6
Ntp201
Rp202
(dp203
g10
Vx
p204
sg12
V-122.395234
p205
sg14
Vx
p206
sg16
g17
(S'\x07\xdc\x05\x0e\x0e5\t\x05\x97\xc6'
p207
tp208
Rp209
sg21
V37.776289
p210
sg23
g200
sbsS'0xb72e758117019e7'
p211
g4
(g5
g6
Ntp212
Rp213
(dp214
g10
Vx
p215
sg12
V-122.395234
p216
sg14
Vx
p217
sg16
g17
(S'\x07\xdc\x05\x0e\x0e\x15\x10\x06E\x80'
p218
tp219
Rp220
sg21
V37.776289
p221
sg23
g211
sbsS'-0x24074c0795801b82'
p222
g4
(g5
g6
Ntp223
Rp224
(dp225
g10
Vx
p226
sg12
V-122.395234
p227
sg14
Vx
p228
sg16
g17
(S'\x07\xdc\x05\x0e\x0e+*\x07M\x10'
p229
tp230
Rp231
sg21
V37.776289
p232
sg23
g222
sbsS'0x67e1c7e9a7b5009c'
p233
g4
(g5
g6
Ntp234
Rp235
(dp236
g10
Vx
p237
sg12
V-122.395234
p238
sg14
Vx
p239
sg16
g17
(S'\x07\xdc\x05\x0e\x0e3\x03\x07\x13\x9b'
p240
tp241
Rp242
sg21
V37.776289
p243
sg23
g233
sbsS'0x20258b5095965694'
p244
g4
(g5
g6
Ntp245
Rp246
(dp247
g10
Vz
p248
sg12
V90
p249
sg14
Vz
p250
sg16
g17
(S'\x07\xdc\x05\x0e\x0e7$\x02mi'
p251
tp252
Rp253
sg21
V80
p254
sg23
g244
sbsS'0x59547cc1ab7810b4'
p255
g4
(g5
g6
Ntp256
Rp257
(dp258
g10
Vz
p259
sg12
V170
p260
sg14
Vz
p261
sg16
g17
(S'\x07\xdc\x05\x0e\x0f\x06;\x0b\xf0n'
p262
tp263
Rp264
sg21
V80
p265
sg23
g255
sbsS'0x18dda8cb097c7f47'
p266
g4
(g5
g6
Ntp267
Rp268
(dp269
g10
Vz
p270
sg12
V-122.395234
p271
sg14
Vz
p272
sg16
g17
(S'\x07\xdc\x05\x0e\x0f\x02\x0f\t\xac\xf3'
p273
tp274
Rp275
sg21
V37.776289
p276
sg23
g266
sbsS'-0x6d92b9fe2f07e1a1'
p277
g4
(g5
g6
Ntp278
Rp279
(dp280
g10
Vz
p281
sg12
V-122.395234
p282
sg14
Vz
p283
sg16
g17
(S'\x07\xdc\x05\x0e\x0f\x02\n\x05Hx'
p284
tp285
Rp286
sg21
V37.776289
p287
sg23
g277
sbsS'0x194b675879950e64'
p288
g4
(g5
g6
Ntp289
Rp290
(dp291
g10
Vx
p292
sg12
V-122.395234
p293
sg14
Vx
p294
sg16
g17
(S'\x07\xdc\x05\x0e\x0e1;\x0f\n\xc2'
p295
tp296
Rp297
sg21
V37.776289
p298
sg23
g288
sbsS'-0x1bc55828a4090cac'
p299
g4
(g5
g6
Ntp300
Rp301
(dp302
g10
Vx
p303
sg12
V-122.395234
p304
sg14
Vx
p305
sg16
g17
(S'\x07\xdc\x05\x0e\x0e.\x07\x07t\xe3'
p306
tp307
Rp308
sg21
V37.776289
p309
sg23
g299
sbsS'-0x5e08dd1f69fab922'
p310
g4
(g5
g6
Ntp311
Rp312
(dp313
g10
Vx
p314
sg12
V-122.395234
p315
sg14
Vx
p316
sg16
g17
(S'\x07\xdc\x05\x0e\x0e,\x06\n\xb3h'
p317
tp318
Rp319
sg21
V37.776289
p320
sg23
g310
sbsS'-0x3ab8508a971253e3'
p321
g4
(g5
g6
Ntp322
Rp323
(dp324
g10
Vx
p325
sg12
V-122.395234
p326
sg14
Vx
p327
sg16
g17
(S'\x07\xdc\x05\x0e\x0e+\x0b\x08Zv'
p328
tp329
Rp330
sg21
V37.776289
p331
sg23
g321
sbsS'0x2016a96eafccdac7'
p332
g4
(g5
g6
Ntp333
Rp334
(dp335
g10
Vx
p336
sg12
V-122.395234
p337
sg14
Vx
p338
sg16
g17
(S'\x07\xdc\x05\x0e\x0e\x13\x10\x08\xc8c'
p339
tp340
Rp341
sg21
V37.776289
p342
sg23
g332
sbsS'0x49248862370c731d'
p343
g4
(g5
g6
Ntp344
Rp345
(dp346
g10
Vx
p347
sg12
V-122.395234
p348
sg14
Vx
p349
sg16
g17
(S'\x07\xdc\x05\x0e\x0e*\x08\x05]\xd6'
p350
tp351
Rp352
sg21
V37.776289
p353
sg23
g343
sbsS'0x6140df639cbfa77a'
p354
g4
(g5
g6
Ntp355
Rp356
(dp357
g10
Vz
p358
sg12
V170
p359
sg14
Vz
p360
sg16
g17
(S'\x07\xdc\x05\x0e\x0f\x08\n\x06\xff\xe1'
p361
tp362
Rp363
sg21
V80
p364
sg23
g354
sbsS'0x10fad0fb9c3a299e'
p365
g4
(g5
g6
Ntp366
Rp367
(dp368
g10
Vz
p369
sg12
V-122.395234
p370
sg14
Vz
p371
sg16
g17
(S'\x07\xdc\x05\x0e\x0e;\x16\r\xff\xc2'
p372
tp373
Rp374
sg21
V37.776289
p375
sg23
g365
sbsS'0x3be0610e4bebdeb8'
p376
g4
(g5
g6
Ntp377
Rp378
(dp379
g10
Vz
p380
sg12
V-122.395234
p381
sg14
Vz
p382
sg16
g17
(S'\x07\xdc\x05\x0e\x0f\x02\x08\x05\xd2\xfb'
p383
tp384
Rp385
sg21
V37.776289
p386
sg23
g376
sbsS'-0x309b102941faaa2f'
p387
g4
(g5
g6
Ntp388
Rp389
(dp390
g10
Vz
p391
sg12
V-122.395234
p392
sg14
Vz
p393
sg16
g17
(S'\x07\xdc\x05\x0e\x0f\x02\x0c\x0e~\x1d'
p394
tp395
Rp396
sg21
V37.776289
p397
sg23
g387
sbsS'0x3fc5242e2904383'
p398
g4
(g5
g6
Ntp399
Rp400
(dp401
g10
Vz
p402
sg12
V170
p403
sg14
Vz
p404
sg16
g17
(S'\x07\xdc\x05\x0e\x0f\x06*\x08Qj'
p405
tp406
Rp407
sg21
V80
p408
sg23
g398
sbsS'0x3e5459025ac0a9f1'
p409
g4
(g5
g6
Ntp410
Rp411
(dp412
g10
Vx
p413
sg12
V-122.395234
p414
sg14
Vx
p415
sg16
g17
(S'\x07\xdc\x05\x0e\x0e\x133\x04>b'
p416
tp417
Rp418
sg21
V37.776289
p419
sg23
g409
sbsS'0x1bbaaa80b26d79a3'
p420
g4
(g5
g6
Ntp421
Rp422
(dp423
g10
Vx
p424
sg12
V-122.395234
p425
sg14
Vx
p426
sg16
g17
(S'\x07\xdc\x05\x0e\x0e\x14\x15\x00\xe4g'
p427
tp428
Rp429
sg21
V37.776289
p430
sg23
g420
sbsS'-0x54033c949b0bb3cc'
p431
g4
(g5
g6
Ntp432
Rp433
(dp434
g10
Vx
p435
sg12
V-122.395234
p436
sg14
Vx
p437
sg16
g17
(S'\x07\xdc\x05\x0e\x0e1%\x04\xfbH'
p438
tp439
Rp440
sg21
V37.776289
p441
sg23
g431
sbsS'0x3afcab4388efd810'
p442
g4
(g5
g6
Ntp443
Rp444
(dp445
g10
Vz
p446
sg12
V90
p447
sg14
Vz
p448
sg16
g17
(S'\x07\xdc\x05\x0e\x0e7\x0c\x04\xe5\x97'
p449
tp450
Rp451
sg21
V80
p452
sg23
g442
sbsS'-0x6db9ffd98219673'
p453
g4
(g5
g6
Ntp454
Rp455
(dp456
g10
Vz
p457
sg12
V170
p458
sg14
Vz
p459
sg16
g17
(S'\x07\xdc\x05\x0e\x0f\t\x06\x0e\x1a4'
p460
tp461
Rp462
sg21
V80
p463
sg23
g453
sbsS'-0x4a9f011f331ca582'
p464
g4
(g5
g6
Ntp465
Rp466
(dp467
g10
Vz
p468
sg12
V90
p469
sg14
Vz
p470
sg16
g17
(S'\x07\xdc\x05\x0e\x0e8\x17\x0c\xe7I'
p471
tp472
Rp473
sg21
V80
p474
sg23
g464
sbsS'0x4f3f91945aa477ba'
p475
g4
(g5
g6
Ntp476
Rp477
(dp478
g10
Vx
p479
sg12
V-122.395234
p480
sg14
Vx
p481
sg16
g17
(S'\x07\xdc\x05\x0e\x0e,\x16\x05\xe5\xed'
p482
tp483
Rp484
sg21
V37.776289
p485
sg23
g475
sbssS'response'
p486
(dp487
S'pwstations'
p488
(lp489
g4
(cmodel
PersonalStation
p490
g6
Ntp491
Rp492
(dp493
S'distance'
p494
I0
sS'stationid'
p495
VKCASANFR53
p496
sbag4
(g490
g6
Ntp497
Rp498
(dp499
g494
I1
sg495
VKCASANFR108
p500
sbag4
(g490
g6
Ntp501
Rp502
(dp503
g494
I0
sg495
VKCASANFR14
p504
sbag4
(g490
g6
Ntp505
Rp506
(dp507
g494
I0
sg495
VKCASANFR113
p508
sbag4
(g490
g6
Ntp509
Rp510
(dp511
g494
I1
sg495
VKCASANFR131
p512
sbag4
(g490
g6
Ntp513
Rp514
(dp515
g494
I2
sg495
VKCASANFR58
p516
sbag4
(g490
g6
Ntp517
Rp518
(dp519
g494
I2
sg495
VKCASANFR79
p520
sbag4
(g490
g6
Ntp521
Rp522
(dp523
g494
I2
sg495
VKCASANFR49
p524
sbag4
(g490
g6
Ntp525
Rp526
(dp527
g494
I1
sg495
VKCASANFR102
p528
sbag4
(g490
g6
Ntp529
Rp530
(dp531
g494
I4
sg495
VMCQ147
p532
sbag4
(g490
g6
Ntp533
Rp534
(dp535
g494
I3
sg495
VKPCASANF2
p536
sbag4
(g490
g6
Ntp537
Rp538
(dp539
g494
I3
sg495
VKCASANFR114
p540
sbag4
(g490
g6
Ntp541
Rp542
(dp543
g494
I3
sg495
VMSFOC1
p544
sbag4
(g490
g6
Ntp545
Rp546
(dp547
g494
I2
sg495
VKCASANFR137
p548
sbag4
(g490
g6
Ntp549
Rp550
(dp551
g494
I4
sg495
VKCASANFR3
p552
sbag4
(g490
g6
Ntp553
Rp554
(dp555
g494
I4
sg495
VKCASANFR86
p556
sbag4
(g490
g6
Ntp557
Rp558
(dp559
g494
I4
sg495
VKCASANFR98
p560
sbag4
(g490
g6
Ntp561
Rp562
(dp563
g494
I5
sg495
VKCASANFR73
p564
sbag4
(g490
g6
Ntp565
Rp566
(dp567
g494
I4
sg495
VKCASANFR76
p568
sbag4
(g490
g6
Ntp569
Rp570
(dp571
g494
I5
sg495
VKCASANFR135
p572
sbag4
(g490
g6
Ntp573
Rp574
(dp575
g494
I5
sg495
VKCASANFR110
p576
sbag4
(g490
g6
Ntp577
Rp578
(dp579
g494
I6
sg495
VMC9629
p580
sbag4
(g490
g6
Ntp581
Rp582
(dp583
g494
I5
sg495
VKCASANFR34
p584
sbag4
(g490
g6
Ntp585
Rp586
(dp587
g494
I6
sg495
VKCASANFR70
p588
sbag4
(g490
g6
Ntp589
Rp590
(dp591
g494
I5
sg495
VKCASANFR82
p592
sbag4
(g490
g6
Ntp593
Rp594
(dp595
g494
I6
sg495
VKCASANFR133
p596
sbag4
(g490
g6
Ntp597
Rp598
(dp599
g494
I6
sg495
VKCASANFR46
p600
sbag4
(g490
g6
Ntp601
Rp602
(dp603
g494
I6
sg495
VKCASANFR72
p604
sbag4
(g490
g6
Ntp605
Rp606
(dp607
g494
I7
sg495
VKCASANFR130
p608
sbag4
(g490
g6
Ntp609
Rp610
(dp611
g494
I7
sg495
VKCASANFR109
p612
sbag4
(g490
g6
Ntp613
Rp614
(dp615
g494
I6
sg495
VKCASANFR128
p616
sbag4
(g490
g6
Ntp617
Rp618
(dp619
g494
I7
sg495
VKCASANFR97
p620
sbag4
(g490
g6
Ntp621
Rp622
(dp623
g494
I8
sg495
VKCAALAME6
p624
sbag4
(g490
g6
Ntp625
Rp626
(dp627
g494
I8
sg495
VMD8533
p628
sbag4
(g490
g6
Ntp629
Rp630
(dp631
g494
I10
sg495
VKCASANFR100
p632
sbasS'airports'
p633
(lp634
g4
(cmodel
AirportStation
p635
g6
Ntp636
Rp637
(dp638
S'icao'
p639
VKOAK
p640
sS'city'
p641
VOakland
p642
sg12
V-122.22000122
p643
sg21
V37.72000122
p644
sbag4
(g635
g6
Ntp645
Rp646
(dp647
g639
VKSFO
p648
sg641
VSan Francisco
p649
sg12
V-122.37000275
p650
sg21
V37.61999893
p651
sbag4
(g635
g6
Ntp652
Rp653
(dp654
g639
VKHWD
p655
sg641
VHayward
p656
sg12
V-122.12000275
p657
sg21
V37.65999985
p658
sbag4
(g635
g6
Ntp659
Rp660
(dp661
g639
VKHAF
p662
sg641
VHalf Moon Bay
p663
sg12
V-122.50000000
p664
sg21
V37.50999832
p665
sbass.