(dp0
S'-0x674eabaf0d12f699'
p1
ccopy_reg
_reconstructor
p2
(cmodel
Request
p3
c__builtin__
object
p4
Ntp5
Rp6
(dp7
S'dateS'
p8
Vx
p9
sS'longitude'
p10
V160
p11
sS'dateE'
p12
Vx
p13
sS'time'
p14
cdatetime
datetime
p15
(S'\x07\xdc\x05\x0b\x15\x01\x00\x06\xd2V'
p16
tp17
Rp18
sS'latitude'
p19
V80
p20
sS'id'
p21
g1
sbsS'-0x3e2f300e2588551a'
p22
g2
(g3
g4
Ntp23
Rp24
(dp25
g8
Vx
p26
sg10
V-122.395234
p27
sg12
Vx
p28
sg14
g15
(S'\x07\xdc\x05\x0b\x15\t+\x00\x8e\xb3'
p29
tp30
Rp31
sg19
V37.776289
p32
sg21
g22
sbsS'0x5371d36241a2f55b'
p33
g2
(g3
g4
Ntp34
Rp35
(dp36
g8
Vx
p37
sg10
V-122.395234
p38
sg12
Vx
p39
sg14
g15
(S'\x07\xdc\x05\x0b\x15\x089\x02\x8a\xaf'
p40
tp41
Rp42
sg19
V37.776289
p43
sg21
g33
sbs.