(dp0
S'request'
p1
(dp2
S'0x412d03c9d863d6db'
p3
ccopy_reg
_reconstructor
p4
(cmodel
Request
p5
c__builtin__
object
p6
Ntp7
Rp8
(dp9
S'dateS'
p10
Vx
p11
sS'longitude'
p12
V-122.395234
p13
sS'dateE'
p14
Vx
p15
sS'time'
p16
cdatetime
datetime
p17
(S'\x07\xdc\x05\x0b\x16:.\x03\x1e\x18'
p18
tp19
Rp20
sS'latitude'
p21
V37.776289
p22
sS'id'
p23
g3
sbsS'0x4a622cd13937851e'
p24
g4
(g5
g6
Ntp25
Rp26
(dp27
g10
Vx
p28
sg12
V170
p29
sg14
Vx
p30
sg16
g17
(S'\x07\xdc\x05\x0b\x177\x01\x06\x02_'
p31
tp32
Rp33
sg21
V80
p34
sg23
g24
sbsS'0x42bbfd5480e27ee8'
p35
g4
(g5
g6
Ntp36
Rp37
(dp38
g10
Vx
p39
sg12
V170
p40
sg14
Vx
p41
sg16
g17
(S'\x07\xdc\x05\x0b\x17(\t\x00\n\xc4'
p42
tp43
Rp44
sg21
V80
p45
sg23
g35
sbsS'-0x57b8a7e73f75875f'
p46
g4
(g5
g6
Ntp47
Rp48
(dp49
g10
Vx
p50
sg12
V150
p51
sg14
Vx
p52
sg16
g17
(S'\x07\xdc\x05\x0b\x17\x0f"\x00\x00/'
p53
tp54
Rp55
sg21
V80
p56
sg23
g46
sbsS'0x496af71e9fed347'
p57
g4
(g5
g6
Ntp58
Rp59
(dp60
g10
Vx
p61
sg12
V170
p62
sg14
Vx
p63
sg16
g17
(S'\x07\xdc\x05\x0b\x17;#\n\x073'
p64
tp65
Rp66
sg21
V80
p67
sg23
g57
sbsS'-0x73c448031e9d5f65'
p68
g4
(g5
g6
Ntp69
Rp70
(dp71
g10
Vx
p72
sg12
V170
p73
sg14
Vx
p74
sg16
g17
(S'\x07\xdc\x05\x0b\x1767\rxT'
p75
tp76
Rp77
sg21
V80
p78
sg23
g68
sbsS'-0x44613d43936782de'
p79
g4
(g5
g6
Ntp80
Rp81
(dp82
g10
Vx
p83
sg12
V180
p84
sg14
Vx
p85
sg16
g17
(S'\x07\xdc\x05\x0b\x17#5\x05\xa2\x91'
p86
tp87
Rp88
sg21
V40
p89
sg23
g79
sbsS'0x6007e2b0ec2d0ce2'
p90
g4
(g5
g6
Ntp91
Rp92
(dp93
g10
Vx
p94
sg12
V170
p95
sg14
Vx
p96
sg16
g17
(S'\x07\xdc\x05\x0b\x17+2\x03\xe6\xd7'
p97
tp98
Rp99
sg21
V80
p100
sg23
g90
sbsS'-0x6e6dedf9f14752a8'
p101
g4
(g5
g6
Ntp102
Rp103
(dp104
g10
Vx
p105
sg12
V170
p106
sg14
Vx
p107
sg16
g17
(S'\x07\xdc\x05\x0b\x179\x16\x07St'
p108
tp109
Rp110
sg21
V80
p111
sg23
g101
sbsS'-0x44946ca7d9fdc34'
p112
g4
(g5
g6
Ntp113
Rp114
(dp115
g10
Vx
p116
sg12
V180
p117
sg14
Vx
p118
sg16
g17
(S'\x07\xdc\x05\x0b\x17!\x03\x07\xf9\x10'
p119
tp120
Rp121
sg21
V40
p122
sg23
g112
sbsS'0x2825880535c41ac4'
p123
g4
(g5
g6
Ntp124
Rp125
(dp126
g10
Vx
p127
sg12
V80
p128
sg14
Vx
p129
sg16
g17
(S'\x07\xdc\x05\x0b\x17\t\x05\x00\xab\xd7'
p130
tp131
Rp132
sg21
V80
p133
sg23
g123
sbsS'-0x68472db63475b36c'
p134
g4
(g5
g6
Ntp135
Rp136
(dp137
g10
Vx
p138
sg12
V80
p139
sg14
Vx
p140
sg16
g17
(S'\x07\xdc\x05\x0b\x17\x0b)\x032\x11'
p141
tp142
Rp143
sg21
V80
p144
sg23
g134
sbsS'-0x46d0abc95d714493'
p145
g4
(g5
g6
Ntp146
Rp147
(dp148
g10
Vx
p149
sg12
V180
p150
sg14
Vx
p151
sg16
g17
(S'\x07\xdc\x05\x0b\x17\x1f!\n\xc8;'
p152
tp153
Rp154
sg21
V40
p155
sg23
g145
sbsS'-0x497168b8ca57024a'
p156
g4
(g5
g6
Ntp157
Rp158
(dp159
g10
Vx
p160
sg12
V80
p161
sg14
Vx
p162
sg16
g17
(S'\x07\xdc\x05\x0b\x17\x1f\x10\t=g'
p163
tp164
Rp165
sg21
V80
p166
sg23
g156
sbsS'-0x706f04a16d9ab931'
p167
g4
(g5
g6
Ntp168
Rp169
(dp170
g10
Vx
p171
sg12
V-122.395234
p172
sg14
Vx
p173
sg16
g17
(S'\x07\xdc\x05\x0b\x168\x12\t\xad\x05'
p174
tp175
Rp176
sg21
V37.776289
p177
sg23
g167
sbsS'0x6789560ade37d78'
p178
g4
(g5
g6
Ntp179
Rp180
(dp181
g10
Vx
p182
sg12
V80
p183
sg14
Vx
p184
sg16
g17
(S"\x07\xdc\x05\x0b\x17\x1d'\x06g\x0b"
p185
tp186
Rp187
sg21
V80
p188
sg23
g178
sbsS'0x26883e4f0b4f202f'
p189
g4
(g5
g6
Ntp190
Rp191
(dp192
g10
Vx
p193
sg12
V170
p194
sg14
Vx
p195
sg16
g17
(S'\x07\xdc\x05\x0b\x170\x02\x0c\xf3\r'
p196
tp197
Rp198
sg21
V80
p199
sg23
g189
sbsS'0x5ca8e5f0fa89d145'
p200
g4
(g5
g6
Ntp201
Rp202
(dp203
g10
Vx
p204
sg12
V180
p205
sg14
Vx
p206
sg16
g17
(S'\x07\xdc\x05\x0b\x17"\x0f\x0be\xb2'
p207
tp208
Rp209
sg21
V40
p210
sg23
g200
sbsS'-0x465730c514822a7a'
p211
g4
(g5
g6
Ntp212
Rp213
(dp214
g10
Vx
p215
sg12
V170
p216
sg14
Vx
p217
sg16
g17
(S'\x07\xdc\x05\x0c\x00\x02\x1a\x0eL\x7f'
p218
tp219
Rp220
sg21
V80
p221
sg23
g211
sbsS'0x7bb45c28a54216ac'
p222
g4
(g5
g6
Ntp223
Rp224
(dp225
g10
Vx
p226
sg12
V170
p227
sg14
Vx
p228
sg16
g17
(S'\x07\xdc\x05\x0b\x177+\x08\xe5\x18'
p229
tp230
Rp231
sg21
V80
p232
sg23
g222
sbsS'-0x39e9ec50485a5647'
p233
g4
(g5
g6
Ntp234
Rp235
(dp236
g10
Vx
p237
sg12
V180
p238
sg14
Vx
p239
sg16
g17
(S"\x07\xdc\x05\x0b\x17$\x0b\x0e['"
p240
tp241
Rp242
sg21
V40
p243
sg23
g233
sbsS'0x3116c9b7e1b9f59c'
p244
g4
(g5
g6
Ntp245
Rp246
(dp247
g10
Vx
p248
sg12
V170
p249
sg14
Vx
p250
sg16
g17
(S'\x07\xdc\x05\x0b\x17;\x0f\x0c\\S'
p251
tp252
Rp253
sg21
V80
p254
sg23
g244
sbsS'-0x2327a25605d4d03c'
p255
g4
(g5
g6
Ntp256
Rp257
(dp258
g10
Vx
p259
sg12
V170
p260
sg14
Vx
p261
sg16
g17
(S'\x07\xdc\x05\x0b\x17+\x16\x00\xd3m'
p262
tp263
Rp264
sg21
V80
p265
sg23
g255
sbsS'0x4bc0946d135f1075'
p266
g4
(g5
g6
Ntp267
Rp268
(dp269
g10
Vx
p270
sg12
V180
p271
sg14
Vx
p272
sg16
g17
(S'\x07\xdc\x05\x0b\x17#;\x00\xb5`'
p273
tp274
Rp275
sg21
V40
p276
sg23
g266
sbsS'-0x28d7540b698f8372'
p277
g4
(g5
g6
Ntp278
Rp279
(dp280
g10
Vx
p281
sg12
V-122.395234
p282
sg14
Vx
p283
sg16
g17
(S'\x07\xdc\x05\x0b\x167"\x06\nQ'
p284
tp285
Rp286
sg21
V37.776289
p287
sg23
g277
sbsS'0x5699879ac2ce2e53'
p288
g4
(g5
g6
Ntp289
Rp290
(dp291
g10
Vx
p292
sg12
V170
p293
sg14
Vx
p294
sg16
g17
(S'\x07\xdc\x05\x0b\x178\x1d\x00\xc4\xc5'
p295
tp296
Rp297
sg21
V80
p298
sg23
g288
sbsS'0x6c70950f83f943f5'
p299
g4
(g5
g6
Ntp300
Rp301
(dp302
g10
Vx
p303
sg12
V170
p304
sg14
Vx
p305
sg16
g17
(S'\x07\xdc\x05\x0c\x00\x00$\x05[6'
p306
tp307
Rp308
sg21
V80
p309
sg23
g299
sbsS'0x3e25b4ce28964a46'
p310
g4
(g5
g6
Ntp311
Rp312
(dp313
g10
Vx
p314
sg12
V180
p315
sg14
Vx
p316
sg16
g17
(S'\x07\xdc\x05\x0b\x17$\x08\x0c\x8a8'
p317
tp318
Rp319
sg21
V40
p320
sg23
g310
sbsS'0x3e30a4a9deca20a7'
p321
g4
(g5
g6
Ntp322
Rp323
(dp324
g10
Vx
p325
sg12
V180
p326
sg14
Vx
p327
sg16
g17
(S'\x07\xdc\x05\x0b\x17"(\x08\x1a\x0b'
p328
tp329
Rp330
sg21
V40
p331
sg23
g321
sbsS'0x3b05f566b13c7662'
p332
g4
(g5
g6
Ntp333
Rp334
(dp335
g10
Vx
p336
sg12
V170
p337
sg14
Vx
p338
sg16
g17
(S'\x07\xdc\x05\x0b\x17+\x0b\x033s'
p339
tp340
Rp341
sg21
V80
p342
sg23
g332
sbsS'-0x1733054374319f06'
p343
g4
(g5
g6
Ntp344
Rp345
(dp346
g10
Vx
p347
sg12
V180
p348
sg14
Vx
p349
sg16
g17
(S'\x07\xdc\x05\x0b\x17$(\x01\x88\x87'
p350
tp351
Rp352
sg21
V40
p353
sg23
g343
sbsS'0x263323f5327c1126'
p354
g4
(g5
g6
Ntp355
Rp356
(dp357
g10
Vx
p358
sg12
V170
p359
sg14
Vx
p360
sg16
g17
(S'\x07\xdc\x05\x0b\x17;&\x0e0('
p361
tp362
Rp363
sg21
V80
p364
sg23
g354
sbsS'-0x707602c41def0442'
p365
g4
(g5
g6
Ntp366
Rp367
(dp368
g10
Vx
p369
sg12
V170
p370
sg14
Vx
p371
sg16
g17
(S'\x07\xdc\x05\x0b\x174\x1f\x05\xbb\xee'
p372
tp373
Rp374
sg21
V80
p375
sg23
g365
sbsS'0x5903d237691e7349'
p376
g4
(g5
g6
Ntp377
Rp378
(dp379
g10
Vx
p380
sg12
V-122.395234
p381
sg14
Vx
p382
sg16
g17
(S'\x07\xdc\x05\x0b\x17\x016\x05z\x18'
p383
tp384
Rp385
sg21
V37.776289
p386
sg23
g376
sbsS'0x16eda1c1da4d9c88'
p387
g4
(g5
g6
Ntp388
Rp389
(dp390
g10
Vx
p391
sg12
V170
p392
sg14
Vx
p393
sg16
g17
(S'\x07\xdc\x05\x0b\x17;7\x0f\x0c\xc4'
p394
tp395
Rp396
sg21
V80
p397
sg23
g387
sbsS'-0x39a39439e38431c8'
p398
g4
(g5
g6
Ntp399
Rp400
(dp401
g10
Vx
p402
sg12
V180
p403
sg14
Vx
p404
sg16
g17
(S'\x07\xdc\x05\x0b\x17#\x03\x00\xc8\xe6'
p405
tp406
Rp407
sg21
V40
p408
sg23
g398
sbsS'0x207c02eb4980418'
p409
g4
(g5
g6
Ntp410
Rp411
(dp412
g10
Vx
p413
sg12
V170
p414
sg14
Vx
p415
sg16
g17
(S'\x07\xdc\x05\x0b\x174\x0c\x06\xf0\x8b'
p416
tp417
Rp418
sg21
V80
p419
sg23
g409
sbsS'-0x4e3adeb34e157753'
p420
g4
(g5
g6
Ntp421
Rp422
(dp423
g10
Vx
p424
sg12
V170
p425
sg14
Vx
p426
sg16
g17
(S'\x07\xdc\x05\x0b\x176\x1b\r\x03K'
p427
tp428
Rp429
sg21
V80
p430
sg23
g420
sbsS'0x7f02abcfed699ed8'
p431
g4
(g5
g6
Ntp432
Rp433
(dp434
g10
Vx
p435
sg12
V80
p436
sg14
Vx
p437
sg16
g17
(S'\x07\xdc\x05\x0b\x17\x1e/\x03\xbc\xdc'
p438
tp439
Rp440
sg21
V80
p441
sg23
g431
sbsS'0x2dd675c425e76c09'
p442
g4
(g5
g6
Ntp443
Rp444
(dp445
g10
Vx
p446
sg12
V170
p447
sg14
Vx
p448
sg16
g17
(S'\x07\xdc\x05\x0b\x1730\x02:\xd7'
p449
tp450
Rp451
sg21
V80
p452
sg23
g442
sbsS'-0x7894107afeed03aa'
p453
g4
(g5
g6
Ntp454
Rp455
(dp456
g10
Vx
p457
sg12
V170
p458
sg14
Vx
p459
sg16
g17
(S'\x07\xdc\x05\x0c\x00\x01\x1f\x059O'
p460
tp461
Rp462
sg21
V80
p463
sg23
g453
sbsS'0x7870860169173bfd'
p464
g4
(g5
g6
Ntp465
Rp466
(dp467
g10
Vx
p468
sg12
V180
p469
sg14
Vx
p470
sg16
g17
(S'\x07\xdc\x05\x0b\x17$\x1f\x04\x008'
p471
tp472
Rp473
sg21
V40
p474
sg23
g464
sbsS'0x5e34cf32438dbcee'
p475
g4
(g5
g6
Ntp476
Rp477
(dp478
g10
Vx
p479
sg12
V170
p480
sg14
Vx
p481
sg16
g17
(S'\x07\xdc\x05\x0b\x17;#\t.r'
p482
tp483
Rp484
sg21
V80
p485
sg23
g475
sbsS'-0x39ccbbdc4a665d7c'
p486
g4
(g5
g6
Ntp487
Rp488
(dp489
g10
Vx
p490
sg12
V80
p491
sg14
Vx
p492
sg16
g17
(S'\x07\xdc\x05\x0b\x17\x1f\x0c\x050\xfe'
p493
tp494
Rp495
sg21
V80
p496
sg23
g486
sbsS'0x11c4324e149f9bec'
p497
g4
(g5
g6
Ntp498
Rp499
(dp500
g10
Vx
p501
sg12
V170
p502
sg14
Vx
p503
sg16
g17
(S'\x07\xdc\x05\x0c\x00\x03-\x03\x153'
p504
tp505
Rp506
sg21
V80
p507
sg23
g497
sbssS'response'
p508
(dp509
S'pwstations'
p510
(lp511
g4
(cmodel
PersonalStation
p512
g6
Ntp513
Rp514
(dp515
S'distance'
p516
I0
sS'stationid'
p517
VKCASANFR53
p518
sbag4
(g512
g6
Ntp519
Rp520
(dp521
g516
I1
sg517
VKCASANFR108
p522
sbag4
(g512
g6
Ntp523
Rp524
(dp525
g516
I0
sg517
VKCASANFR14
p526
sbag4
(g512
g6
Ntp527
Rp528
(dp529
g516
I0
sg517
VKCASANFR113
p530
sbag4
(g512
g6
Ntp531
Rp532
(dp533
g516
I1
sg517
VKCASANFR131
p534
sbag4
(g512
g6
Ntp535
Rp536
(dp537
g516
I2
sg517
VKCASANFR58
p538
sbag4
(g512
g6
Ntp539
Rp540
(dp541
g516
I2
sg517
VKCASANFR79
p542
sbag4
(g512
g6
Ntp543
Rp544
(dp545
g516
I2
sg517
VKCASANFR49
p546
sbag4
(g512
g6
Ntp547
Rp548
(dp549
g516
I1
sg517
VKCASANFR102
p550
sbag4
(g512
g6
Ntp551
Rp552
(dp553
g516
I4
sg517
VMCQ147
p554
sbag4
(g512
g6
Ntp555
Rp556
(dp557
g516
I3
sg517
VKPCASANF2
p558
sbag4
(g512
g6
Ntp559
Rp560
(dp561
g516
I3
sg517
VKCASANFR114
p562
sbag4
(g512
g6
Ntp563
Rp564
(dp565
g516
I3
sg517
VMSFOC1
p566
sbag4
(g512
g6
Ntp567
Rp568
(dp569
g516
I2
sg517
VKCASANFR137
p570
sbag4
(g512
g6
Ntp571
Rp572
(dp573
g516
I4
sg517
VKCASANFR3
p574
sbag4
(g512
g6
Ntp575
Rp576
(dp577
g516
I4
sg517
VKCASANFR86
p578
sbag4
(g512
g6
Ntp579
Rp580
(dp581
g516
I4
sg517
VKCASANFR98
p582
sbag4
(g512
g6
Ntp583
Rp584
(dp585
g516
I5
sg517
VKCASANFR73
p586
sbag4
(g512
g6
Ntp587
Rp588
(dp589
g516
I4
sg517
VKCASANFR76
p590
sbag4
(g512
g6
Ntp591
Rp592
(dp593
g516
I5
sg517
VKCASANFR135
p594
sbag4
(g512
g6
Ntp595
Rp596
(dp597
g516
I5
sg517
VKCASANFR110
p598
sbag4
(g512
g6
Ntp599
Rp600
(dp601
g516
I6
sg517
VMC9629
p602
sbag4
(g512
g6
Ntp603
Rp604
(dp605
g516
I5
sg517
VKCASANFR34
p606
sbag4
(g512
g6
Ntp607
Rp608
(dp609
g516
I6
sg517
VKCASANFR70
p610
sbag4
(g512
g6
Ntp611
Rp612
(dp613
g516
I5
sg517
VKCASANFR82
p614
sbag4
(g512
g6
Ntp615
Rp616
(dp617
g516
I6
sg517
VKCASANFR46
p618
sbag4
(g512
g6
Ntp619
Rp620
(dp621
g516
I6
sg517
VKCASANFR72
p622
sbag4
(g512
g6
Ntp623
Rp624
(dp625
g516
I7
sg517
VKCASANFR130
p626
sbag4
(g512
g6
Ntp627
Rp628
(dp629
g516
I7
sg517
VKCASANFR109
p630
sbag4
(g512
g6
Ntp631
Rp632
(dp633
g516
I6
sg517
VKCASANFR128
p634
sbag4
(g512
g6
Ntp635
Rp636
(dp637
g516
I7
sg517
VKCASANFR97
p638
sbag4
(g512
g6
Ntp639
Rp640
(dp641
g516
I8
sg517
VKCAALAME6
p642
sbag4
(g512
g6
Ntp643
Rp644
(dp645
g516
I10
sg517
VKCASANFR100
p646
sbag4
(g512
g6
Ntp647
Rp648
(dp649
g516
I10
sg517
VMAS891
p650
sbasS'airports'
p651
(lp652
g4
(cmodel
AirportStation
p653
g6
Ntp654
Rp655
(dp656
S'icao'
p657
VKOAK
p658
sS'city'
p659
VOakland
p660
sg12
V-122.22000122
p661
sg21
V37.72000122
p662
sbag4
(g653
g6
Ntp663
Rp664
(dp665
g657
VKSFO
p666
sg659
VSan Francisco
p667
sg12
V-122.37000275
p668
sg21
V37.61999893
p669
sbag4
(g653
g6
Ntp670
Rp671
(dp672
g657
VKHWD
p673
sg659
VHayward
p674
sg12
V-122.12000275
p675
sg21
V37.65999985
p676
sbag4
(g653
g6
Ntp677
Rp678
(dp679
g657
VKHAF
p680
sg659
VHalf Moon Bay
p681
sg12
V-122.50000000
p682
sg21
V37.50999832
p683
sbass.