(dp0
S'request'
p1
(dp2
S'0x48be562b48014d49'
p3
ccopy_reg
_reconstructor
p4
(cmodel
Request
p5
c__builtin__
object
p6
Ntp7
Rp8
(dp9
S'dateS'
p10
Vx
p11
sS'longitude'
p12
V-122.395234
p13
sS'dateE'
p14
Vx
p15
sS'time'
p16
cdatetime
datetime
p17
(S'\x07\xdc\x05\x0e\x139\x05\x02\xb9V'
p18
tp19
Rp20
sS'latitude'
p21
V37.776289
p22
sS'id'
p23
g3
sbsS'-0x50bc6abecb20b2c8'
p24
g4
(g5
g6
Ntp25
Rp26
(dp27
g10
Vx
p28
sg12
V-122.395234
p29
sg14
Vx
p30
sg16
g17
(S'\x07\xdc\x05\x0e\x14\x1f\x1a\x04\x8b)'
p31
tp32
Rp33
sg21
V37.776289
p34
sg23
g24
sbsS'0x2218f229f7e6fcd3'
p35
g4
(g5
g6
Ntp36
Rp37
(dp38
g10
Vx
p39
sg12
V-122.395234
p40
sg14
Vx
p41
sg16
g17
(S'\x07\xdc\x05\x0e\x17\x03!\x0c\x7fF'
p42
tp43
Rp44
sg21
V37.776289
p45
sg23
g35
sbsS'0x2d09427ce5af20c3'
p46
g4
(g5
g6
Ntp47
Rp48
(dp49
g10
Vz
p50
sg12
V90
p51
sg14
Vz
p52
sg16
g17
(S'\x07\xdc\x05\x0e\x0e88\x04KQ'
p53
tp54
Rp55
sg21
V80
p56
sg23
g46
sbsS'-0x96ad79cb3775848'
p57
g4
(g5
g6
Ntp58
Rp59
(dp60
g10
Vx
p61
sg12
V-122.395234
p62
sg14
Vx
p63
sg16
g17
(S'\x07\xdc\x05\x0e\x17\x03)\x0b>]'
p64
tp65
Rp66
sg21
V37.776289
p67
sg23
g57
sbsS'0x194b675879950e64'
p68
g4
(g5
g6
Ntp69
Rp70
(dp71
g10
Vx
p72
sg12
V-122.395234
p73
sg14
Vx
p74
sg16
g17
(S'\x07\xdc\x05\x0e\x0e1;\x0f\n\xc2'
p75
tp76
Rp77
sg21
V37.776289
p78
sg23
g68
sbsS'-0x51cf18d664238da'
p79
g4
(g5
g6
Ntp80
Rp81
(dp82
g10
Vx
p83
sg12
V-122.395234
p84
sg14
Vx
p85
sg16
g17
(S'\x07\xdc\x05\x0e\x15\x04+\rx\xe0'
p86
tp87
Rp88
sg21
V37.776289
p89
sg23
g79
sbsS'-0x33ce6e6b5f576255'
p90
g4
(g5
g6
Ntp91
Rp92
(dp93
g10
Vx
p94
sg12
V-122.395234
p95
sg14
Vx
p96
sg16
g17
(S'\x07\xdc\x05\x0e\x15\x1e\x0c\x01\xe82'
p97
tp98
Rp99
sg21
V37.776289
p100
sg23
g90
sbsS'0x54e9cd926e7f9dfe'
p101
g4
(g5
g6
Ntp102
Rp103
(dp104
g10
Vx
p105
sg12
V-122.395234
p106
sg14
Vx
p107
sg16
g17
(S'\x07\xdc\x05\x0e\x0e4\x0c\x04\x16\xcf'
p108
tp109
Rp110
sg21
V37.776289
p111
sg23
g101
sbsS'-0x77f101605418c321'
p112
g4
(g5
g6
Ntp113
Rp114
(dp115
g10
Vx
p116
sg12
V180
p117
sg14
Vx
p118
sg16
g17
(S'\x07\xdc\x05\x0e\x0f1:\x01\x1e('
p119
tp120
Rp121
sg21
V91
p122
sg23
g112
sbsS'-0x2ebcab8d86d18130'
p123
g4
(g5
g6
Ntp124
Rp125
(dp126
g10
Vx
p127
sg12
V122.395234
p128
sg14
Vx
p129
sg16
g17
(S'\x07\xdc\x05\x0e\x139\x0b\x03\xb0W'
p130
tp131
Rp132
sg21
V37.776289
p133
sg23
g123
sbsS'0x1355de66eb7072cc'
p134
g4
(g5
g6
Ntp135
Rp136
(dp137
g10
Vx
p138
sg12
V-122.395234
p139
sg14
Vx
p140
sg16
g17
(S'\x07\xdc\x05\x0e\x0e-,\x0c\x82\xfc'
p141
tp142
Rp143
sg21
V37.776289
p144
sg23
g134
sbsS'-0x1d0e6b6f905b762b'
p145
g4
(g5
g6
Ntp146
Rp147
(dp148
g10
Vz
p149
sg12
V90
p150
sg14
Vz
p151
sg16
g17
(S'\x07\xdc\x05\x0e\x0e94\t\xd6\xb8'
p152
tp153
Rp154
sg21
V80
p155
sg23
g145
sbsS'0x5a11ac42c83dbbab'
p156
g4
(g5
g6
Ntp157
Rp158
(dp159
g10
Vx
p160
sg12
V-122.395234
p161
sg14
Vx
p162
sg16
g17
(S'\x07\xdc\x05\x0e\x13\x1e\x18\n\xe6\x9d'
p163
tp164
Rp165
sg21
V40
p166
sg23
g156
sbsS'0x7ec9bfd31b564c4c'
p167
g4
(g5
g6
Ntp168
Rp169
(dp170
g10
Vx
p171
sg12
V-122.395234
p172
sg14
Vx
p173
sg16
g17
(S'\x07\xdc\x05\x0e\x0f1\x15\x00\xba\x08'
p174
tp175
Rp176
sg21
V37.776289
p177
sg23
g167
sbsS'0xe403be237950991'
p178
g4
(g5
g6
Ntp179
Rp180
(dp181
g10
Vz
p182
sg12
V170
p183
sg14
Vz
p184
sg16
g17
(S'\x07\xdc\x05\x0e\x0f\x02\x1c\x06\x9bb'
p185
tp186
Rp187
sg21
V80
p188
sg23
g178
sbsS'-0x148b9843b3dd1180'
p189
g4
(g5
g6
Ntp190
Rp191
(dp192
g10
Vx
p193
sg12
V170
p194
sg14
Vx
p195
sg16
g17
(S'\x07\xdc\x05\x0e\x10\x0c0\x0c\x823'
p196
tp197
Rp198
sg21
V80
p199
sg23
g189
sbsS'-0x580411b7800e23b8'
p200
g4
(g5
g6
Ntp201
Rp202
(dp203
g10
Vx
p204
sg12
V-122.395234
p205
sg14
Vx
p206
sg16
g17
(S'\x07\xdc\x05\x0e\x14"#\x02\xf1\xd3'
p207
tp208
Rp209
sg21
V37.776289
p210
sg23
g200
sbsS'0x49f21d2c59ca3e23'
p211
g4
(g5
g6
Ntp212
Rp213
(dp214
g10
Vz
p215
sg12
V170
p216
sg14
Vz
p217
sg16
g17
(S'\x07\xdc\x05\x0e\x0f\x0c6\tu\xc1'
p218
tp219
Rp220
sg21
V80
p221
sg23
g211
sbsS'-0x69c62ca7ff1670bb'
p222
g4
(g5
g6
Ntp223
Rp224
(dp225
g10
V02/16/2012
p226
sg12
V-122.395234
p227
sg14
V02/16/2012
p228
sg16
g17
(S'\x07\xdc\x05\x0f\x112\x1e\x0b\xf33'
p229
tp230
Rp231
sg21
V37.776289
p232
sg23
g222
sbsS'0x8856bf1706fc4b0'
p233
g4
(g5
g6
Ntp234
Rp235
(dp236
g10
V02/16/2012
p237
sg12
V-122.395234
p238
sg14
V02/16/2012
p239
sg16
g17
(S'\x07\xdc\x05\x0f\x12\x02\x07\x08\xd0\xde'
p240
tp241
Rp242
sg21
V37.776289
p243
sg23
g233
sbsS'-0x456613309d203a66'
p244
g4
(g5
g6
Ntp245
Rp246
(dp247
g10
V02/16/2012
p248
sg12
V-122.395234
p249
sg14
V02/16/2012
p250
sg16
g17
(S'\x07\xdc\x05\x0f\x11:\x12\nIS'
p251
tp252
Rp253
sg21
V37.776289
p254
sg23
g244
sbsS'-0xcdc85bbddd186b5'
p255
g4
(g5
g6
Ntp256
Rp257
(dp258
g10
Vz
p259
sg12
V90
p260
sg14
Vz
p261
sg16
g17
(S'\x07\xdc\x05\x0e\x0e77\x06\xeb!'
p262
tp263
Rp264
sg21
V80
p265
sg23
g255
sbsS'-0x1c177ef859c0784d'
p266
g4
(g5
g6
Ntp267
Rp268
(dp269
g10
Vx
p270
sg12
V-122.395234
p271
sg14
Vx
p272
sg16
g17
(S'\x07\xdc\x05\x0e\x11$,\x03\xe6\x9c'
p273
tp274
Rp275
sg21
V37.776289
p276
sg23
g266
sbsS'0x20258b5095965694'
p277
g4
(g5
g6
Ntp278
Rp279
(dp280
g10
Vz
p281
sg12
V90
p282
sg14
Vz
p283
sg16
g17
(S'\x07\xdc\x05\x0e\x0e7$\x02mi'
p284
tp285
Rp286
sg21
V80
p287
sg23
g277
sbsS'0xab2301222f0c172'
p288
g4
(g5
g6
Ntp289
Rp290
(dp291
g10
V02/16/2012
p292
sg12
V-122.395234
p293
sg14
V02/16/2012
p294
sg16
g17
(S'\x07\xdc\x05\x0f\x11\x14-\x0e\xa0\xaf'
p295
tp296
Rp297
sg21
V37.776289
p298
sg23
g288
sbsS'0x74d98eeab0bbcf91'
p299
g4
(g5
g6
Ntp300
Rp301
(dp302
g10
Vx
p303
sg12
V-122.395234
p304
sg14
Vx
p305
sg16
g17
(S'\x07\xdc\x05\x0e\x11\x12(\x0e.\xa5'
p306
tp307
Rp308
sg21
V37.776289
p309
sg23
g299
sbsS'-0x6d92b9fe2f07e1a1'
p310
g4
(g5
g6
Ntp311
Rp312
(dp313
g10
Vz
p314
sg12
V-122.395234
p315
sg14
Vz
p316
sg16
g17
(S'\x07\xdc\x05\x0e\x0f\x02\n\x05Hx'
p317
tp318
Rp319
sg21
V37.776289
p320
sg23
g310
sbsS'-0x1bc55828a4090cac'
p321
g4
(g5
g6
Ntp322
Rp323
(dp324
g10
Vx
p325
sg12
V-122.395234
p326
sg14
Vx
p327
sg16
g17
(S'\x07\xdc\x05\x0e\x0e.\x07\x07t\xe3'
p328
tp329
Rp330
sg21
V37.776289
p331
sg23
g321
sbsS'0x609355d74ced4e4e'
p332
g4
(g5
g6
Ntp333
Rp334
(dp335
g10
Vx
p336
sg12
V-122.395234
p337
sg14
Vx
p338
sg16
g17
(S'\x07\xdc\x05\x0e\x13 \x1a\x0c\x04\x0f'
p339
tp340
Rp341
sg21
V30
p342
sg23
g332
sbsS'-0x5e08dd1f69fab922'
p343
g4
(g5
g6
Ntp344
Rp345
(dp346
g10
Vx
p347
sg12
V-122.395234
p348
sg14
Vx
p349
sg16
g17
(S'\x07\xdc\x05\x0e\x0e,\x06\n\xb3h'
p350
tp351
Rp352
sg21
V37.776289
p353
sg23
g343
sbsS'-0x79df616317fe6681'
p354
g4
(g5
g6
Ntp355
Rp356
(dp357
g10
Vx
p358
sg12
V-122.395234
p359
sg14
Vx
p360
sg16
g17
(S'\x07\xdc\x05\x0e\x11.\x16\x02\xb9,'
p361
tp362
Rp363
sg21
V37.776289
p364
sg23
g354
sbsS'0x317ea0b0dcbc6129'
p365
g4
(g5
g6
Ntp366
Rp367
(dp368
g10
Vx
p369
sg12
V-122.395234
p370
sg14
Vx
p371
sg16
g17
(S'\x07\xdc\x05\x0e\x17\x02\x02\x04T\xa1'
p372
tp373
Rp374
sg21
V37.776289
p375
sg23
g365
sbsS'-0x6f6fbdbf15d0195b'
p376
g4
(g5
g6
Ntp377
Rp378
(dp379
g10
Vx
p380
sg12
V122.395234
p381
sg14
Vx
p382
sg16
g17
(S'\x07\xdc\x05\x0e\x13:\x08\x0cn\x89'
p383
tp384
Rp385
sg21
V37.776289
p386
sg23
g376
sbsS'0x10fad0fb9c3a299e'
p387
g4
(g5
g6
Ntp388
Rp389
(dp390
g10
Vz
p391
sg12
V-122.395234
p392
sg14
Vz
p393
sg16
g17
(S'\x07\xdc\x05\x0e\x0e;\x16\r\xff\xc2'
p394
tp395
Rp396
sg21
V37.776289
p397
sg23
g387
sbsS'0x63b65ebe5874471'
p398
g4
(g5
g6
Ntp399
Rp400
(dp401
g10
Vx
p402
sg12
V-122.395234
p403
sg14
Vx
p404
sg16
g17
(S'\x07\xdc\x05\x0e\x14\x055\x0f\x00\xf9'
p405
tp406
Rp407
sg21
V37.776289
p408
sg23
g398
sbsS'0xb72e758117019e7'
p409
g4
(g5
g6
Ntp410
Rp411
(dp412
g10
Vx
p413
sg12
V-122.395234
p414
sg14
Vx
p415
sg16
g17
(S'\x07\xdc\x05\x0e\x0e\x15\x10\x06E\x80'
p416
tp417
Rp418
sg21
V37.776289
p419
sg23
g409
sbsS'-0x158894e2e4e64acf'
p420
g4
(g5
g6
Ntp421
Rp422
(dp423
g10
Vx
p424
sg12
V-122.395234
p425
sg14
Vx
p426
sg16
g17
(S"\x07\xdc\x05\x0e\x13\x17&\x0f '"
p427
tp428
Rp429
sg21
V37.776289
p430
sg23
g420
sbsS'0x5def3712fecb638a'
p431
g4
(g5
g6
Ntp432
Rp433
(dp434
g10
Vx
p435
sg12
V-122.395234
p436
sg14
Vx
p437
sg16
g17
(S'\x07\xdc\x05\x0e\x13\x1b\x0b\x03\x0e\xc9'
p438
tp439
Rp440
sg21
V37.776289
p441
sg23
g431
sbsS'-0x486f6275908fefd'
p442
g4
(g5
g6
Ntp443
Rp444
(dp445
g10
Vx
p446
sg12
V-122.395234
p447
sg14
Vx
p448
sg16
g17
(S'\x07\xdc\x05\x0e\x14 0\nZ\xde'
p449
tp450
Rp451
sg21
V37.776289
p452
sg23
g442
sbsS'-0x54033c949b0bb3cc'
p453
g4
(g5
g6
Ntp454
Rp455
(dp456
g10
Vx
p457
sg12
V-122.395234
p458
sg14
Vx
p459
sg16
g17
(S'\x07\xdc\x05\x0e\x0e1%\x04\xfbH'
p460
tp461
Rp462
sg21
V37.776289
p463
sg23
g453
sbsS'0x4a5cbb3f02c716c1'
p464
g4
(g5
g6
Ntp465
Rp466
(dp467
g10
Vx
p468
sg12
V-122.395234
p469
sg14
Vx
p470
sg16
g17
(S'\x07\xdc\x05\x0e\x136\x13\x01\xa8/'
p471
tp472
Rp473
sg21
V37.776289
p474
sg23
g464
sbsS'-0x5afb301a32d3791b'
p475
g4
(g5
g6
Ntp476
Rp477
(dp478
g10
Vx
p479
sg12
V-122.395234
p480
sg14
Vx
p481
sg16
g17
(S'\x07\xdc\x05\x0e\x13 \x15\x07\x9e\x1b'
p482
tp483
Rp484
sg21
V40
p485
sg23
g475
sbsS'0x4b9aa673405a2327'
p486
g4
(g5
g6
Ntp487
Rp488
(dp489
g10
Vx
p490
sg12
V-122.395234
p491
sg14
Vx
p492
sg16
g17
(S'\x07\xdc\x05\x0e\x13\x18\x12\x008!'
p493
tp494
Rp495
sg21
V37.776289
p496
sg23
g486
sbsS'-0x4a9f011f331ca582'
p497
g4
(g5
g6
Ntp498
Rp499
(dp500
g10
Vz
p501
sg12
V90
p502
sg14
Vz
p503
sg16
g17
(S'\x07\xdc\x05\x0e\x0e8\x17\x0c\xe7I'
p504
tp505
Rp506
sg21
V80
p507
sg23
g497
sbsS'0x7172f77e71df2f79'
p508
g4
(g5
g6
Ntp509
Rp510
(dp511
g10
Vx
p512
sg12
V122.395234
p513
sg14
Vx
p514
sg16
g17
(S'\x07\xdc\x05\x0e\x14\x00%\x02;L'
p515
tp516
Rp517
sg21
V37.776289
p518
sg23
g508
sbsS'0x4f3f91945aa477ba'
p519
g4
(g5
g6
Ntp520
Rp521
(dp522
g10
Vx
p523
sg12
V-122.395234
p524
sg14
Vx
p525
sg16
g17
(S'\x07\xdc\x05\x0e\x0e,\x16\x05\xe5\xed'
p526
tp527
Rp528
sg21
V37.776289
p529
sg23
g519
sbsS'0x2de434033d2a130c'
p530
g4
(g5
g6
Ntp531
Rp532
(dp533
g10
V02/16/2012
p534
sg12
V-73.5550
p535
sg14
V02/16/2012
p536
sg16
g17
(S'\x07\xdc\x05\x0f\x11,9\x05\x805'
p537
tp538
Rp539
sg21
V45.5081
p540
sg23
g530
sbsS'0x269c96e72f5bf692'
p541
g4
(g5
g6
Ntp542
Rp543
(dp544
g10
Vx
p545
sg12
V-122.395234
p546
sg14
Vx
p547
sg16
g17
(S'\x07\xdc\x05\x0e\x134\x12\x00\xd5\xef'
p548
tp549
Rp550
sg21
V37.776289
p551
sg23
g541
sbsS'0x311218aa9cbb4238'
p552
g4
(g5
g6
Ntp553
Rp554
(dp555
g10
Vx
p556
sg12
V-122.395234
p557
sg14
Vx
p558
sg16
g17
(S'\x07\xdc\x05\x0e\x13\x00\x17\x0c\xed2'
p559
tp560
Rp561
sg21
V37.776289
p562
sg23
g552
sbsS'-0x541639115ed6557b'
p563
g4
(g5
g6
Ntp564
Rp565
(dp566
g10
Vx
p567
sg12
V-122.395234
p568
sg14
Vx
p569
sg16
g17
(S'\x07\xdc\x05\x0e\x13\x18\x19\x08\x9a\x08'
p570
tp571
Rp572
sg21
V37.776289
p573
sg23
g563
sbsS'0x57e88d48b38ac6bb'
p574
g4
(g5
g6
Ntp575
Rp576
(dp577
g10
Vx
p578
sg12
V-122.395234
p579
sg14
Vx
p580
sg16
g17
(S'\x07\xdc\x05\x0e\x13\x1e\x08\x0e,\x81'
p581
tp582
Rp583
sg21
V39.776289
p584
sg23
g574
sbsS'0x6f57d7b10f5dcc15'
p585
g4
(g5
g6
Ntp586
Rp587
(dp588
g10
Vx
p589
sg12
V-122.395234
p590
sg14
Vx
p591
sg16
g17
(S'\x07\xdc\x05\x0e\x12;7\x08D\xdc'
p592
tp593
Rp594
sg21
V37.776289
p595
sg23
g585
sbsS'-0x78a4c01dd85f7d5d'
p596
g4
(g5
g6
Ntp597
Rp598
(dp599
g10
Vz
p600
sg12
V170
p601
sg14
Vz
p602
sg16
g17
(S'\x07\xdc\x05\x0e\x0f\x06;\r=H'
p603
tp604
Rp605
sg21
V80
p606
sg23
g596
sbsS'-0x34c9961fe59ca036'
p607
g4
(g5
g6
Ntp608
Rp609
(dp610
g10
V02/16/2012
p611
sg12
V-122.395234
p612
sg14
V02/16/2012
p613
sg16
g17
(S'\x07\xdc\x05\x0f\x11)\x1e\x08K\xba'
p614
tp615
Rp616
sg21
V60
p617
sg23
g607
sbsS'0x3afcab4388efd810'
p618
g4
(g5
g6
Ntp619
Rp620
(dp621
g10
Vz
p622
sg12
V90
p623
sg14
Vz
p624
sg16
g17
(S'\x07\xdc\x05\x0e\x0e7\x0c\x04\xe5\x97'
p625
tp626
Rp627
sg21
V80
p628
sg23
g618
sbsS'0x6b37a924a1e02b56'
p629
g4
(g5
g6
Ntp630
Rp631
(dp632
g10
Vx
p633
sg12
V-122.395234
p634
sg14
Vx
p635
sg16
g17
(S'\x07\xdc\x05\x0e\x134\x18\r\x96\xf1'
p636
tp637
Rp638
sg21
V37.776289
p639
sg23
g629
sbsS'-0xb423618ef51ec6c'
p640
g4
(g5
g6
Ntp641
Rp642
(dp643
g10
Vx
p644
sg12
V-122.395234
p645
sg14
Vx
p646
sg16
g17
(S'\x07\xdc\x05\x0e\x11\x11/\r\\\xdb'
p647
tp648
Rp649
sg21
V37.776289
p650
sg23
g640
sbsS'0x64a29e0251fabed7'
p651
g4
(g5
g6
Ntp652
Rp653
(dp654
g10
V02/16/2012
p655
sg12
V-122.395234
p656
sg14
V02/16/2012
p657
sg16
g17
(S'\x07\xdc\x05\x0f\x11\t\x02\x04\xff\xd9'
p658
tp659
Rp660
sg21
V37.776289
p661
sg23
g651
sbsS'-0x71dd73d2479257b6'
p662
g4
(g5
g6
Ntp663
Rp664
(dp665
g10
V02/16/2012
p666
sg12
V-122.395234
p667
sg14
V02/16/2012
p668
sg16
g17
(S'\x07\xdc\x05\x0f\x11;*\x05\xa7\xa3'
p669
tp670
Rp671
sg21
V37.776289
p672
sg23
g662
sbsS'0x78b018dd0d9626b0'
p673
g4
(g5
g6
Ntp674
Rp675
(dp676
g10
Vx
p677
sg12
V-122.395234
p678
sg14
Vx
p679
sg16
g17
(S'\x07\xdc\x05\x0e\x15!%\x07\xc18'
p680
tp681
Rp682
sg21
V37.776289
p683
sg23
g673
sbsS'0x2807bda6d7979598'
p684
g4
(g5
g6
Ntp685
Rp686
(dp687
g10
Vx
p688
sg12
V-73.5550
p689
sg14
Vx
p690
sg16
g17
(S'\x07\xdc\x05\x0e\x17\x1d\x0c\x0b\xac\xf5'
p691
tp692
Rp693
sg21
V45.5081
p694
sg23
g684
sbsS'0x67e1c7e9a7b5009c'
p695
g4
(g5
g6
Ntp696
Rp697
(dp698
g10
Vx
p699
sg12
V-122.395234
p700
sg14
Vx
p701
sg16
g17
(S'\x07\xdc\x05\x0e\x0e3\x03\x07\x13\x9b'
p702
tp703
Rp704
sg21
V37.776289
p705
sg23
g695
sbsS'-0x7a1dd0a97ff73ab4'
p706
g4
(g5
g6
Ntp707
Rp708
(dp709
g10
Vx
p710
sg12
V-122.395234
p711
sg14
Vx
p712
sg16
g17
(S'\x07\xdc\x05\x0e\x13\x1b6\x07\x99]'
p713
tp714
Rp715
sg21
V37.776289
p716
sg23
g706
sbsS'-0x4728c9c2bac24014'
p717
g4
(g5
g6
Ntp718
Rp719
(dp720
g10
Vx
p721
sg12
V-122.395234
p722
sg14
Vx
p723
sg16
g17
(S'\x07\xdc\x05\x0e\x13&8\x01~e'
p724
tp725
Rp726
sg21
V37.776289
p727
sg23
g717
sbsS'0x2b0415ba07ac5cd8'
p728
g4
(g5
g6
Ntp729
Rp730
(dp731
g10
Vx
p732
sg12
V-122.395234
p733
sg14
Vx
p734
sg16
g17
(S'\x07\xdc\x05\x0e\x11,\t\x07R\x94'
p735
tp736
Rp737
sg21
V37.776289
p738
sg23
g728
sbsS'0x34d19b98917bf554'
p739
g4
(g5
g6
Ntp740
Rp741
(dp742
g10
Vx
p743
sg12
V-122.395234
p744
sg14
Vx
p745
sg16
g17
(S'\x07\xdc\x05\x0e\x17\x03,\x06c<'
p746
tp747
Rp748
sg21
V37.776289
p749
sg23
g739
sbsS'0x37a2f4725b102e1'
p750
g4
(g5
g6
Ntp751
Rp752
(dp753
g10
Vx
p754
sg12
V170
p755
sg14
Vx
p756
sg16
g17
(S'\x07\xdc\x05\x0e\x10\n\x0c\x0e\x079'
p757
tp758
Rp759
sg21
V80
p760
sg23
g750
sbsS'-0x39d933b6e6e4e3e4'
p761
g4
(g5
g6
Ntp762
Rp763
(dp764
g10
Vx
p765
sg12
V-73.5550
p766
sg14
Vx
p767
sg16
g17
(S'\x07\xdc\x05\x0e\x17\x103\t\xeb&'
p768
tp769
Rp770
sg21
V45.5081
p771
sg23
g761
sbsS'0x2b247db334adb261'
p772
g4
(g5
g6
Ntp773
Rp774
(dp775
g10
Vx
p776
sg12
V122.395234
p777
sg14
Vx
p778
sg16
g17
(S'\x07\xdc\x05\x0e\x13:2\x02\x1c\xd3'
p779
tp780
Rp781
sg21
V37.776289
p782
sg23
g772
sbsS'-0x61802542f901f9dc'
p783
g4
(g5
g6
Ntp784
Rp785
(dp786
g10
V02/16/2012
p787
sg12
V-122.395234
p788
sg14
V02/16/2012
p789
sg16
g17
(S'\x07\xdc\x05\x0f\x11\x1b\x06\x05\xb6\xba'
p790
tp791
Rp792
sg21
V37.776289
p793
sg23
g783
sbsS'0x49f666b85d16fa2d'
p794
g4
(g5
g6
Ntp795
Rp796
(dp797
g10
Vx
p798
sg12
V-122.395234
p799
sg14
Vx
p800
sg16
g17
(S'\x07\xdc\x05\x0e\x15\x01\x05\x00\xfd\xb6'
p801
tp802
Rp803
sg21
V37.776289
p804
sg23
g794
sbsS'0x5a8cb59c6c5cf2d1'
p805
g4
(g5
g6
Ntp806
Rp807
(dp808
g10
V02/16/2012
p809
sg12
V-122.395234
p810
sg14
V02/16/2012
p811
sg16
g17
(S'\x07\xdc\x05\x0f\x11\x02\x11\n\xa6\xc8'
p812
tp813
Rp814
sg21
V37.776289
p815
sg23
g805
sbsS'0x1a6c675be5931024'
p816
g4
(g5
g6
Ntp817
Rp818
(dp819
g10
Vx
p820
sg12
V-122.395234
p821
sg14
Vx
p822
sg16
g17
(S'\x07\xdc\x05\x0e\x11(,\x05\x84\xcf'
p823
tp824
Rp825
sg21
V37.776289
p826
sg23
g816
sbsS'-0x169e5f2c037b6246'
p827
g4
(g5
g6
Ntp828
Rp829
(dp830
g10
Vx
p831
sg12
V90
p832
sg14
Vx
p833
sg16
g17
(S'\x07\xdc\x05\x0e\x10\n\x06\r3e'
p834
tp835
Rp836
sg21
V80
p837
sg23
g827
sbsS'-0x3f76143f797f03b6'
p838
g4
(g5
g6
Ntp839
Rp840
(dp841
g10
V02/16/2012
p842
sg12
V-122.395234
p843
sg14
V02/16/2012
p844
sg16
g17
(S'\x07\xdc\x05\x0f\x11(-\x01\xa8\xbc'
p845
tp846
Rp847
sg21
V37.776289
p848
sg23
g838
sbsS'-0x3ab8508a971253e3'
p849
g4
(g5
g6
Ntp850
Rp851
(dp852
g10
Vx
p853
sg12
V-122.395234
p854
sg14
Vx
p855
sg16
g17
(S'\x07\xdc\x05\x0e\x0e+\x0b\x08Zv'
p856
tp857
Rp858
sg21
V37.776289
p859
sg23
g849
sbsS'0x2016a96eafccdac7'
p860
g4
(g5
g6
Ntp861
Rp862
(dp863
g10
Vx
p864
sg12
V-122.395234
p865
sg14
Vx
p866
sg16
g17
(S'\x07\xdc\x05\x0e\x0e\x13\x10\x08\xc8c'
p867
tp868
Rp869
sg21
V37.776289
p870
sg23
g860
sbsS'0x723ff24834c48296'
p871
g4
(g5
g6
Ntp872
Rp873
(dp874
g10
Vx
p875
sg12
V-122.395234
p876
sg14
Vx
p877
sg16
g17
(S'\x07\xdc\x05\x0e\x15\t\x07\x0c\xca*'
p878
tp879
Rp880
sg21
V37.776289
p881
sg23
g871
sbsS'-0x576d9bc7b1cc6deb'
p882
g4
(g5
g6
Ntp883
Rp884
(dp885
g10
Vx
p886
sg12
V-122.395234
p887
sg14
Vx
p888
sg16
g17
(S'\x07\xdc\x05\x0e\x14\x1d;\x00\xcbY'
p889
tp890
Rp891
sg21
V37.776289
p892
sg23
g882
sbsS'-0x109675dd02246159'
p893
g4
(g5
g6
Ntp894
Rp895
(dp896
g10
Vx
p897
sg12
V-122.395234
p898
sg14
Vx
p899
sg16
g17
(S'\x07\xdc\x05\x0e\x15\x02\x14\x062\xef'
p900
tp901
Rp902
sg21
V37.776289
p903
sg23
g893
sbsS'0x7d6314becbacacf1'
p904
g4
(g5
g6
Ntp905
Rp906
(dp907
g10
V02/16/2012
p908
sg12
V-122.395234
p909
sg14
V02/16/2012
p910
sg16
g17
(S'\x07\xdc\x05\x0f\x10:7\x05d '
p911
tp912
Rp913
sg21
V37.776289
p914
sg23
g904
sbsS'-0x52ab02d6d9ef6ce3'
p915
g4
(g5
g6
Ntp916
Rp917
(dp918
g10
Vx
p919
sg12
V122.395234
p920
sg14
Vx
p921
sg16
g17
(S'\x07\xdc\x05\x0e\x14\x02\x14\x03\xfd\x02'
p922
tp923
Rp924
sg21
V37.776289
p925
sg23
g915
sbsS'-0x402da06d336e46fa'
p926
g4
(g5
g6
Ntp927
Rp928
(dp929
g10
Vx
p930
sg12
V122.395234
p931
sg14
Vx
p932
sg16
g17
(S'\x07\xdc\x05\x0e\x13:\x0c\x00Y\xd7'
p933
tp934
Rp935
sg21
V37.776289
p936
sg23
g926
sbsS'0x3fc5242e2904383'
p937
g4
(g5
g6
Ntp938
Rp939
(dp940
g10
Vz
p941
sg12
V170
p942
sg14
Vz
p943
sg16
g17
(S'\x07\xdc\x05\x0e\x0f\x06*\x08Qj'
p944
tp945
Rp946
sg21
V80
p947
sg23
g937
sbsS'0x6a41b02d300860b'
p948
g4
(g5
g6
Ntp949
Rp950
(dp951
g10
Vx
p952
sg12
V-122.395234
p953
sg14
Vx
p954
sg16
g17
(S'\x07\xdc\x05\x0e\x14\x06\x0b\ta\xef'
p955
tp956
Rp957
sg21
V37.776289
p958
sg23
g948
sbsS'0x4b8c2d8c2c0b903a'
p959
g4
(g5
g6
Ntp960
Rp961
(dp962
g10
V02/16/2012
p963
sg12
V-122.395234
p964
sg14
V02/16/2012
p965
sg16
g17
(S'\x07\xdc\x05\x0f\x11)\x10\x05m\xe5'
p966
tp967
Rp968
sg21
V80
p969
sg23
g959
sbsS'0x1bbaaa80b26d79a3'
p970
g4
(g5
g6
Ntp971
Rp972
(dp973
g10
Vx
p974
sg12
V-122.395234
p975
sg14
Vx
p976
sg16
g17
(S'\x07\xdc\x05\x0e\x0e\x14\x15\x00\xe4g'
p977
tp978
Rp979
sg21
V37.776289
p980
sg23
g970
sbsS'-0x38cf019ade35e7bf'
p981
g4
(g5
g6
Ntp982
Rp983
(dp984
g10
Vx
p985
sg12
V-122.395234
p986
sg14
Vx
p987
sg16
g17
(S'\x07\xdc\x05\x0e\x15\x049\x0cZ6'
p988
tp989
Rp990
sg21
V37.776289
p991
sg23
g981
sbsS'0x548248ef3b40cd7f'
p992
g4
(g5
g6
Ntp993
Rp994
(dp995
g10
Vx
p996
sg12
V-122.395234
p997
sg14
Vx
p998
sg16
g17
(S'\x07\xdc\x05\x0e\x13\x1c\n\x03}\xc1'
p999
tp1000
Rp1001
sg21
V37.776289
p1002
sg23
g992
sbsS'-0x292455af2816f4c0'
p1003
g4
(g5
g6
Ntp1004
Rp1005
(dp1006
g10
Vx
p1007
sg12
V170
p1008
sg14
Vx
p1009
sg16
g17
(S'\x07\xdc\x05\x0e\x10\x1f\x02\x0b\xe5\xb0'
p1010
tp1011
Rp1012
sg21
V80
p1013
sg23
g1003
sbsS'-0x6db9ffd98219673'
p1014
g4
(g5
g6
Ntp1015
Rp1016
(dp1017
g10
Vz
p1018
sg12
V170
p1019
sg14
Vz
p1020
sg16
g17
(S'\x07\xdc\x05\x0e\x0f\t\x06\x0e\x1a4'
p1021
tp1022
Rp1023
sg21
V80
p1024
sg23
g1014
sbsS'0x3a51b7ec917d089f'
p1025
g4
(g5
g6
Ntp1026
Rp1027
(dp1028
g10
Vx
p1029
sg12
V122.395234
p1030
sg14
Vx
p1031
sg16
g17
(S'\x07\xdc\x05\x0e\x14\x01.\x04*_'
p1032
tp1033
Rp1034
sg21
V37.776289
p1035
sg23
g1025
sbsS'0x578789d3636400cd'
p1036
g4
(g5
g6
Ntp1037
Rp1038
(dp1039
g10
Vx
p1040
sg12
V-122.395234
p1041
sg14
Vx
p1042
sg16
g17
(S'\x07\xdc\x05\x0e\x13 \x1f\x06\x93\x86'
p1043
tp1044
Rp1045
sg21
V36
p1046
sg23
g1036
sbsS'0x3a11091352065adb'
p1047
g4
(g5
g6
Ntp1048
Rp1049
(dp1050
g10
Vx
p1051
sg12
V-122.395234
p1052
sg14
Vx
p1053
sg16
g17
(S'\x07\xdc\x05\x0e\x0f0"\x08du'
p1054
tp1055
Rp1056
sg21
V37.776289
p1057
sg23
g1047
sbsS'0x7608046078205d2c'
p1058
g4
(g5
g6
Ntp1059
Rp1060
(dp1061
g10
Vx
p1062
sg12
V-122.395234
p1063
sg14
Vx
p1064
sg16
g17
(S'\x07\xdc\x05\x0e\x14\x04)\x0c}\xe1'
p1065
tp1066
Rp1067
sg21
V37.776289
p1068
sg23
g1058
sbsS'-0x79343f62eb77e06a'
p1069
g4
(g5
g6
Ntp1070
Rp1071
(dp1072
g10
V02/16/2012
p1073
sg12
V-122.395234
p1074
sg14
V02/16/2012
p1075
sg16
g17
(S'\x07\xdc\x05\x0f\x11,"\x0e><'
p1076
tp1077
Rp1078
sg21
V37.776289
p1079
sg23
g1069
sbsS'0x151194bea4286d49'
p1080
g4
(g5
g6
Ntp1081
Rp1082
(dp1083
g10
Vx
p1084
sg12
V-122.395234
p1085
sg14
Vx
p1086
sg16
g17
(S'\x07\xdc\x05\x0e\x17\x04\x0f\x06\xa3\xe3'
p1087
tp1088
Rp1089
sg21
V37.776289
p1090
sg23
g1080
sbsS'-0x2b9ac484e40e3792'
p1091
g4
(g5
g6
Ntp1092
Rp1093
(dp1094
g10
V02/16/2012
p1095
sg12
V-122.395234
p1096
sg14
V02/16/2012
p1097
sg16
g17
(S'\x07\xdc\x05\x0f\x11\x18\x1b\x06}\x12'
p1098
tp1099
Rp1100
sg21
V37.776289
p1101
sg23
g1091
sbsS'-0x759fa9274f927c80'
p1102
g4
(g5
g6
Ntp1103
Rp1104
(dp1105
g10
Vx
p1106
sg12
V180
p1107
sg14
Vx
p1108
sg16
g17
(S'\x07\xdc\x05\x0e\x0f10\x013\x98'
p1109
tp1110
Rp1111
sg21
V80
p1112
sg23
g1102
sbsS'-0x15ceb31a6f45bc74'
p1113
g4
(g5
g6
Ntp1114
Rp1115
(dp1116
g10
Vx
p1117
sg12
V-122.395234
p1118
sg14
Vx
p1119
sg16
g17
(S'\x07\xdc\x05\x0e\x11-0\x03\x9a&'
p1120
tp1121
Rp1122
sg21
V37.776289
p1123
sg23
g1113
sbsS'-0x257301f16610e2da'
p1124
g4
(g5
g6
Ntp1125
Rp1126
(dp1127
g10
V02/16/2012
p1128
sg12
V-122.395234
p1129
sg14
V02/16/2012
p1130
sg16
g17
(S'\x07\xdc\x05\x0f\x11\x01-\nw\x97'
p1131
tp1132
Rp1133
sg21
V37.776289
p1134
sg23
g1124
sbsS'0x18385132304e2987'
p1135
g4
(g5
g6
Ntp1136
Rp1137
(dp1138
g10
Vx
p1139
sg12
V-122.395234
p1140
sg14
Vx
p1141
sg16
g17
(S'\x07\xdc\x05\x0e\x17$\x13\x01&m'
p1142
tp1143
Rp1144
sg21
V37.776289
p1145
sg23
g1135
sbsS'0x1ea3cc93b12c979b'
p1146
g4
(g5
g6
Ntp1147
Rp1148
(dp1149
g10
Vx
p1150
sg12
V-122.395234
p1151
sg14
Vx
p1152
sg16
g17
(S'\x07\xdc\x05\x0e\x14\x1c\x11\n\x198'
p1153
tp1154
Rp1155
sg21
V37.776289
p1156
sg23
g1146
sbsS'0x408ef9abe91da0a8'
p1157
g4
(g5
g6
Ntp1158
Rp1159
(dp1160
g10
Vx
p1161
sg12
V-122.395234
p1162
sg14
Vx
p1163
sg16
g17
(S'\x07\xdc\x05\x0e\x15\x06\x15\r\x07\x1b'
p1164
tp1165
Rp1166
sg21
V37.776289
p1167
sg23
g1157
sbsS'0x49248862370c731d'
p1168
g4
(g5
g6
Ntp1169
Rp1170
(dp1171
g10
Vx
p1172
sg12
V-122.395234
p1173
sg14
Vx
p1174
sg16
g17
(S'\x07\xdc\x05\x0e\x0e*\x08\x05]\xd6'
p1175
tp1176
Rp1177
sg21
V37.776289
p1178
sg23
g1168
sbsS'0x450dead1496dbeb1'
p1179
g4
(g5
g6
Ntp1180
Rp1181
(dp1182
g10
Vx
p1183
sg12
V-122.395234
p1184
sg14
Vx
p1185
sg16
g17
(S'\x07\xdc\x05\x0e\x133;\x07w\xd9'
p1186
tp1187
Rp1188
sg21
V37.776289
p1189
sg23
g1179
sbsS'0x4b7087d02e70719a'
p1190
g4
(g5
g6
Ntp1191
Rp1192
(dp1193
g10
Vx
p1194
sg12
V-122.395234
p1195
sg14
Vx
p1196
sg16
g17
(S'\x07\xdc\x05\x0e\x11\x11\x18\x05\xbd\x7f'
p1197
tp1198
Rp1199
sg21
V37.776289
p1200
sg23
g1190
sbsS'-0x3e48043739e0e3dd'
p1201
g4
(g5
g6
Ntp1202
Rp1203
(dp1204
g10
Vx
p1205
sg12
V170
p1206
sg14
Vx
p1207
sg16
g17
(S'\x07\xdc\x05\x0e\x10\x0e%\x0c\x92\x9d'
p1208
tp1209
Rp1210
sg21
V80
p1211
sg23
g1201
sbsS'0x27791dc33f300158'
p1212
g4
(g5
g6
Ntp1213
Rp1214
(dp1215
g10
Vx
p1216
sg12
V-122.395234
p1217
sg14
Vx
p1218
sg16
g17
(S'\x07\xdc\x05\x0e\x13\x01\x04\x00\xa8\xe1'
p1219
tp1220
Rp1221
sg21
V37.776289
p1222
sg23
g1212
sbsS'-0x63590ed64e1b6545'
p1223
g4
(g5
g6
Ntp1224
Rp1225
(dp1226
g10
V02/16/2012
p1227
sg12
V-122.395234
p1228
sg14
V02/16/2012
p1229
sg16
g17
(S'\x07\xdc\x05\x0f\x118"\x02\xb3\x96'
p1230
tp1231
Rp1232
sg21
V37.776289
p1233
sg23
g1223
sbsS'0x54df783185863d64'
p1234
g4
(g5
g6
Ntp1235
Rp1236
(dp1237
g10
V02/16/2012
p1238
sg12
V-122.395234
p1239
sg14
V02/16/2012
p1240
sg16
g17
(S'\x07\xdc\x05\x0f\x12\x01\x04\x0e]\xb9'
p1241
tp1242
Rp1243
sg21
V37.776289
p1244
sg23
g1234
sbsS'-0xa98e95287beb25'
p1245
g4
(g5
g6
Ntp1246
Rp1247
(dp1248
g10
Vx
p1249
sg12
V-122.395234
p1250
sg14
Vx
p1251
sg16
g17
(S'\x07\xdc\x05\x0e\x15\r)\rC\xa7'
p1252
tp1253
Rp1254
sg21
V37.776289
p1255
sg23
g1245
sbsS'-0x46f7200026a1cdab'
p1256
g4
(g5
g6
Ntp1257
Rp1258
(dp1259
g10
Vx
p1260
sg12
V-122.395234
p1261
sg14
Vx
p1262
sg16
g17
(S'\x07\xdc\x05\x0e\x15\x17\x1c\n\xf4\xf2'
p1263
tp1264
Rp1265
sg21
V37.776289
p1266
sg23
g1256
sbsS'-0x7e1c7da420f794a9'
p1267
g4
(g5
g6
Ntp1268
Rp1269
(dp1270
g10
Vx
p1271
sg12
V-122.395234
p1272
sg14
Vx
p1273
sg16
g17
(S'\x07\xdc\x05\x0e\x14\x105\t\xd2\x1e'
p1274
tp1275
Rp1276
sg21
V37.776289
p1277
sg23
g1267
sbsS'-0x3ccbf7cce7f22c74'
p1278
g4
(g5
g6
Ntp1279
Rp1280
(dp1281
g10
Vx
p1282
sg12
V-122.395234
p1283
sg14
Vx
p1284
sg16
g17
(S'\x07\xdc\x05\x0e\x15\x0e\x13\x02\x17\xaa'
p1285
tp1286
Rp1287
sg21
V37.776289
p1288
sg23
g1278
sbsS'-0xebbc465aacc7931'
p1289
g4
(g5
g6
Ntp1290
Rp1291
(dp1292
g10
Vx
p1293
sg12
V-122.395234
p1294
sg14
Vx
p1295
sg16
g17
(S'\x07\xdc\x05\x0e\x13\x1e\x01\x05P\x9b'
p1296
tp1297
Rp1298
sg21
V37.776289
p1299
sg23
g1289
sbsS'-0x2892ddfc69c2ffd4'
p1300
g4
(g5
g6
Ntp1301
Rp1302
(dp1303
g10
Vx
p1304
sg12
V-122.395234
p1305
sg14
Vx
p1306
sg16
g17
(S'\x07\xdc\x05\x0e\x13\x1e\x0f\t:\xe8'
p1307
tp1308
Rp1309
sg21
V80
p1310
sg23
g1300
sbsS'-0x6d0e142305b4c9f6'
p1311
g4
(g5
g6
Ntp1312
Rp1313
(dp1314
g10
Vz
p1315
sg12
V170
p1316
sg14
Vz
p1317
sg16
g17
(S'\x07\xdc\x05\x0e\x0f\x03\x06\x03\xc2\xa0'
p1318
tp1319
Rp1320
sg21
V80
p1321
sg23
g1311
sbsS'-0x17ccf4eec4770ec1'
p1322
g4
(g5
g6
Ntp1323
Rp1324
(dp1325
g10
V02/16/2012
p1326
sg12
V-122.395234
p1327
sg14
V02/16/2012
p1328
sg16
g17
(S"\x07\xdc\x05\x0f\x11\x02\t\x02\xe1'"
p1329
tp1330
Rp1331
sg21
V37.776289
p1332
sg23
g1322
sbsS'-0x6d48a3694fedcb34'
p1333
g4
(g5
g6
Ntp1334
Rp1335
(dp1336
g10
Vx
p1337
sg12
V-122.395234
p1338
sg14
Vx
p1339
sg16
g17
(S'\x07\xdc\x05\x0e\x16\x05\x00\x0bN\x17'
p1340
tp1341
Rp1342
sg21
V37.776289
p1343
sg23
g1333
sbsS'-0x183e3de798c64b09'
p1344
g4
(g5
g6
Ntp1345
Rp1346
(dp1347
g10
V02/16/2012
p1348
sg12
V-122.395234
p1349
sg14
V02/16/2012
p1350
sg16
g17
(S'\x07\xdc\x05\x0f\x12\x01\x15\x06\x8a\xd0'
p1351
tp1352
Rp1353
sg21
V37.776289
p1354
sg23
g1344
sbsS'-0x1d8a2937c6f20feb'
p1355
g4
(g5
g6
Ntp1356
Rp1357
(dp1358
g10
Vx
p1359
sg12
V-122.395234
p1360
sg14
Vx
p1361
sg16
g17
(S'\x07\xdc\x05\x0e\x14\x1a6\ta\xba'
p1362
tp1363
Rp1364
sg21
V37.776289
p1365
sg23
g1355
sbsS'0x18a0ed8d4a1c949f'
p1366
g4
(g5
g6
Ntp1367
Rp1368
(dp1369
g10
V02/16/2012
p1370
sg12
V-122.395234
p1371
sg14
V02/16/2012
p1372
sg16
g17
(S'\x07\xdc\x05\x0f\x11&\r\x07\x83T'
p1373
tp1374
Rp1375
sg21
V37.776289
p1376
sg23
g1366
sbsS'0x5ca3d2bc19c03055'
p1377
g4
(g5
g6
Ntp1378
Rp1379
(dp1380
g10
Vx
p1381
sg12
V-122.395234
p1382
sg14
Vx
p1383
sg16
g17
(S'\x07\xdc\x05\x0e\x11/\x07\x0c(\x15'
p1384
tp1385
Rp1386
sg21
V37.776289
p1387
sg23
g1377
sbsS'0x18dda8cb097c7f47'
p1388
g4
(g5
g6
Ntp1389
Rp1390
(dp1391
g10
Vz
p1392
sg12
V-122.395234
p1393
sg14
Vz
p1394
sg16
g17
(S'\x07\xdc\x05\x0e\x0f\x02\x0f\t\xac\xf3'
p1395
tp1396
Rp1397
sg21
V37.776289
p1398
sg23
g1388
sbsS'0x2933abe80d5d757e'
p1399
g4
(g5
g6
Ntp1400
Rp1401
(dp1402
g10
Vx
p1403
sg12
V-73.5550
p1404
sg14
Vx
p1405
sg16
g17
(S'\x07\xdc\x05\x0e\x17\x08\r\n\xbb\xad'
p1406
tp1407
Rp1408
sg21
V45.5081
p1409
sg23
g1399
sbsS'0x53548d1bd30d01a0'
p1410
g4
(g5
g6
Ntp1411
Rp1412
(dp1413
g10
Vx
p1414
sg12
V-73.5550
p1415
sg14
Vx
p1416
sg16
g17
(S'\x07\xdc\x05\x0e\x14\x11\x1c\n\x10U'
p1417
tp1418
Rp1419
sg21
V45.5081
p1420
sg23
g1410
sbsS'0x38a3a03e4d201e60'
p1421
g4
(g5
g6
Ntp1422
Rp1423
(dp1424
g10
Vx
p1425
sg12
V-122.395234
p1426
sg14
Vx
p1427
sg16
g17
(S'\x07\xdc\x05\x0e\x15\x15*\x04$i'
p1428
tp1429
Rp1430
sg21
V37.776289
p1431
sg23
g1421
sbsS'0x3ec8f7c30240c74d'
p1432
g4
(g5
g6
Ntp1433
Rp1434
(dp1435
g10
Vx
p1436
sg12
V-122.395234
p1437
sg14
Vx
p1438
sg16
g17
(S'\x07\xdc\x05\x0e\x17\x03\x1e\x06P\xc2'
p1439
tp1440
Rp1441
sg21
V37.776289
p1442
sg23
g1432
sbsS'-0x574d1d662aa89bf0'
p1443
g4
(g5
g6
Ntp1444
Rp1445
(dp1446
g10
Vx
p1447
sg12
V170
p1448
sg14
Vx
p1449
sg16
g17
(S'\x07\xdc\x05\x0e\x10\x10\x18\x0b\x0eh'
p1450
tp1451
Rp1452
sg21
V80
p1453
sg23
g1443
sbsS'0x68d8dc59397a433b'
p1454
g4
(g5
g6
Ntp1455
Rp1456
(dp1457
g10
Vx
p1458
sg12
V-73.5550
p1459
sg14
Vx
p1460
sg16
g17
(S'\x07\xdc\x05\x0e\x17\x1d\t\x05\xa6\x01'
p1461
tp1462
Rp1463
sg21
V45.5081
p1464
sg23
g1454
sbsS'-0x54e8b0b593202dcf'
p1465
g4
(g5
g6
Ntp1466
Rp1467
(dp1468
g10
Vx
p1469
sg12
V-122.395234
p1470
sg14
Vx
p1471
sg16
g17
(S'\x07\xdc\x05\x0e\x1388\x0c\x10\xd9'
p1472
tp1473
Rp1474
sg21
V37.776289
p1475
sg23
g1465
sbsS'-0x6e0309b142664a82'
p1476
g4
(g5
g6
Ntp1477
Rp1478
(dp1479
g10
V02/16/2012
p1480
sg12
V-122.395234
p1481
sg14
V02/16/2012
p1482
sg16
g17
(S'\x07\xdc\x05\x0f\x11\x04,\x03\xd01'
p1483
tp1484
Rp1485
sg21
V37.776289
p1486
sg23
g1476
sbsS'-0x498c9ad035ac4177'
p1487
g4
(g5
g6
Ntp1488
Rp1489
(dp1490
g10
Vx
p1491
sg12
V180
p1492
sg14
Vx
p1493
sg16
g17
(S'\x07\xdc\x05\x0e\x0e\x17\x00\x01x\xb1'
p1494
tp1495
Rp1496
sg21
V80
p1497
sg23
g1487
sbsS'-0x567490557928b5ab'
p1498
g4
(g5
g6
Ntp1499
Rp1500
(dp1501
g10
V02/16/2012
p1502
sg12
V-122.395234
p1503
sg14
V02/16/2012
p1504
sg16
g17
(S'\x07\xdc\x05\x0f\x12\x10-\x01r\x10'
p1505
tp1506
Rp1507
sg21
V37.776289
p1508
sg23
g1498
sbsS'0x9a5c4ab96ec776'
p1509
g4
(g5
g6
Ntp1510
Rp1511
(dp1512
g10
V02/16/2012
p1513
sg12
V-122.395234
p1514
sg14
V02/16/2012
p1515
sg16
g17
(S'\x07\xdc\x05\x0f\x11\x072\x04\x872'
p1516
tp1517
Rp1518
sg21
V37.776289
p1519
sg23
g1509
sbsS'-0x68bcb788be2921bb'
p1520
g4
(g5
g6
Ntp1521
Rp1522
(dp1523
g10
V02/16/2012
p1524
sg12
V-122.395234
p1525
sg14
V02/16/2012
p1526
sg16
g17
(S'\x07\xdc\x05\x0f\x12\x12\x16\x0c\x0b!'
p1527
tp1528
Rp1529
sg21
V37.776289
p1530
sg23
g1520
sbsS'-0x5201548bdc738c77'
p1531
g4
(g5
g6
Ntp1532
Rp1533
(dp1534
g10
Vx
p1535
sg12
V-73.5550
p1536
sg14
Vx
p1537
sg16
g17
(S'\x07\xdc\x05\x0e\x17\x046\x06\xef\xeb'
p1538
tp1539
Rp1540
sg21
V45.5081
p1541
sg23
g1531
sbsS'0x59547cc1ab7810b4'
p1542
g4
(g5
g6
Ntp1543
Rp1544
(dp1545
g10
Vz
p1546
sg12
V170
p1547
sg14
Vz
p1548
sg16
g17
(S'\x07\xdc\x05\x0e\x0f\x06;\x0b\xf0n'
p1549
tp1550
Rp1551
sg21
V80
p1552
sg23
g1542
sbsS'0x148b03a655b36bac'
p1553
g4
(g5
g6
Ntp1554
Rp1555
(dp1556
g10
V02/16/2012
p1557
sg12
V-122.395234
p1558
sg14
V02/16/2012
p1559
sg16
g17
(S'\x07\xdc\x05\x0f\x117!\t6_'
p1560
tp1561
Rp1562
sg21
V37.776289
p1563
sg23
g1553
sbsS'0x1134400b322c17d7'
p1564
g4
(g5
g6
Ntp1565
Rp1566
(dp1567
g10
V02/16/2012
p1568
sg12
V-122.395234
p1569
sg14
V02/16/2012
p1570
sg16
g17
(S'\x07\xdc\x05\x0f\x11(\x0b\x05\x9f\xa2'
p1571
tp1572
Rp1573
sg21
V37.776289
p1574
sg23
g1564
sbsS'0x423f2cedbe55fa15'
p1575
g4
(g5
g6
Ntp1576
Rp1577
(dp1578
g10
Vx
p1579
sg12
V-122.395234
p1580
sg14
Vx
p1581
sg16
g17
(S'\x07\xdc\x05\x0e\x13\x00\x17\r\x96\xe7'
p1582
tp1583
Rp1584
sg21
V37.776289
p1585
sg23
g1575
sbsS'0x734d3991fbed8ec'
p1586
g4
(g5
g6
Ntp1587
Rp1588
(dp1589
g10
Vx
p1590
sg12
V-122.395234
p1591
sg14
Vx
p1592
sg16
g17
(S'\x07\xdc\x05\x0e\x13#\x1d\x07\x8f?'
p1593
tp1594
Rp1595
sg21
V36
p1596
sg23
g1586
sbsS'0x56585b86b245948c'
p1597
g4
(g5
g6
Ntp1598
Rp1599
(dp1600
g10
V02/16/2012
p1601
sg12
V-122.395234
p1602
sg14
V02/16/2012
p1603
sg16
g17
(S'\x07\xdc\x05\x0f\x11\x16\r\x0b\x1cn'
p1604
tp1605
Rp1606
sg21
V37.776289
p1607
sg23
g1597
sbsS'0x3e5459025ac0a9f1'
p1608
g4
(g5
g6
Ntp1609
Rp1610
(dp1611
g10
Vx
p1612
sg12
V-122.395234
p1613
sg14
Vx
p1614
sg16
g17
(S'\x07\xdc\x05\x0e\x0e\x133\x04>b'
p1615
tp1616
Rp1617
sg21
V37.776289
p1618
sg23
g1608
sbsS'0x6fea883490ad5a97'
p1619
g4
(g5
g6
Ntp1620
Rp1621
(dp1622
g10
Vx
p1623
sg12
V-122.395234
p1624
sg14
Vx
p1625
sg16
g17
(S'\x07\xdc\x05\x0e\x11\x14\x1d\x07\x1c\x01'
p1626
tp1627
Rp1628
sg21
V37.776289
p1629
sg23
g1619
sbsS'-0x503cc3ae7e48ce0f'
p1630
g4
(g5
g6
Ntp1631
Rp1632
(dp1633
g10
Vx
p1634
sg12
V-73.5550
p1635
sg14
Vx
p1636
sg16
g17
(S'\x07\xdc\x05\x0e\x17\x10$\x05\xb3R'
p1637
tp1638
Rp1639
sg21
V45.5081
p1640
sg23
g1630
sbsS'-0x51967569e6125e0c'
p1641
g4
(g5
g6
Ntp1642
Rp1643
(dp1644
g10
Vx
p1645
sg12
V-122.395234
p1646
sg14
Vx
p1647
sg16
g17
(S'\x07\xdc\x05\x0e\x15\x19.\n@\xdf'
p1648
tp1649
Rp1650
sg21
V37.776289
p1651
sg23
g1641
sbsS'-0x3cf7854cb5f922d0'
p1652
g4
(g5
g6
Ntp1653
Rp1654
(dp1655
g10
Vx
p1656
sg12
V-122.395234
p1657
sg14
Vx
p1658
sg16
g17
(S'\x07\xdc\x05\x0e\x11\x15\x01\x05r7'
p1659
tp1660
Rp1661
sg21
V37.776289
p1662
sg23
g1652
sbsS'0x1fb8faf54ba7c3d3'
p1663
g4
(g5
g6
Ntp1664
Rp1665
(dp1666
g10
V02/16/2012
p1667
sg12
V-122.395234
p1668
sg14
V02/16/2012
p1669
sg16
g17
(S'\x07\xdc\x05\x0f\x12\x050\x02[\xf4'
p1670
tp1671
Rp1672
sg21
V37.776289
p1673
sg23
g1663
sbsS'0x253094c1ee19ee3b'
p1674
g4
(g5
g6
Ntp1675
Rp1676
(dp1677
g10
V02/16/2012
p1678
sg12
V-122.395234
p1679
sg14
V02/16/2012
p1680
sg16
g17
(S'\x07\xdc\x05\x0f\x11\x183\x0b\x93\xb0'
p1681
tp1682
Rp1683
sg21
V37.776289
p1684
sg23
g1674
sbsS'0x5296c45d600a594'
p1685
g4
(g5
g6
Ntp1686
Rp1687
(dp1688
g10
Vx
p1689
sg12
V-122.395234
p1690
sg14
Vx
p1691
sg16
g17
(S'\x07\xdc\x05\x0e\x13#\x18\x07\x10\x15'
p1692
tp1693
Rp1694
sg21
V36
p1695
sg23
g1685
sbsS'0x24dd6dfbb254c139'
p1696
g4
(g5
g6
Ntp1697
Rp1698
(dp1699
g10
Vx
p1700
sg12
V-122.395234
p1701
sg14
Vx
p1702
sg16
g17
(S'\x07\xdc\x05\x0e\x15\x02\x10\x01\x0f='
p1703
tp1704
Rp1705
sg21
V37.776289
p1706
sg23
g1696
sbsS'-0x736964ec0e2f41d5'
p1707
g4
(g5
g6
Ntp1708
Rp1709
(dp1710
g10
Vx
p1711
sg12
V-122.395234
p1712
sg14
Vx
p1713
sg16
g17
(S'\x07\xdc\x05\x0e\x16\x10,\r\xdc\xa1'
p1714
tp1715
Rp1716
sg21
V37.776289
p1717
sg23
g1707
sbsS'-0x7e4b72cc19a865a8'
p1718
g4
(g5
g6
Ntp1719
Rp1720
(dp1721
g10
Vx
p1722
sg12
V122.395234
p1723
sg14
Vx
p1724
sg16
g17
(S'\x07\xdc\x05\x0e\x14\x02\x19\x05d\xa5'
p1725
tp1726
Rp1727
sg21
V37.776289
p1728
sg23
g1718
sbsS'0x35414a6bc473cf20'
p1729
g4
(g5
g6
Ntp1730
Rp1731
(dp1732
g10
Vx
p1733
sg12
V-122.395234
p1734
sg14
Vx
p1735
sg16
g17
(S'\x07\xdc\x05\x0e\x1629\x06\x8f\x85'
p1736
tp1737
Rp1738
sg21
V37.776289
p1739
sg23
g1729
sbsS'0x5d026a6a1c08e51e'
p1740
g4
(g5
g6
Ntp1741
Rp1742
(dp1743
g10
Vx
p1744
sg12
V-122.395234
p1745
sg14
Vx
p1746
sg16
g17
(S'\x07\xdc\x05\x0e\x13"\x06\x05\x85\xfd'
p1747
tp1748
Rp1749
sg21
V36
p1750
sg23
g1740
sbsS'0x3e07386c0a67b0e'
p1751
g4
(g5
g6
Ntp1752
Rp1753
(dp1754
g10
Vx
p1755
sg12
V-122.395234
p1756
sg14
Vx
p1757
sg16
g17
(S'\x07\xdc\x05\x0e\x17\x03\x1e\x07\x1b\x95'
p1758
tp1759
Rp1760
sg21
V37.776289
p1761
sg23
g1751
sbsS'0x42cf89f2384c46a3'
p1762
g4
(g5
g6
Ntp1763
Rp1764
(dp1765
g10
Vx
p1766
sg12
V-122.395234
p1767
sg14
Vx
p1768
sg16
g17
(S'\x07\xdc\x05\x0e\x1306\x0eM\xf4'
p1769
tp1770
Rp1771
sg21
V37.776289
p1772
sg23
g1762
sbsS'0x3f6b804db5d058bc'
p1773
g4
(g5
g6
Ntp1774
Rp1775
(dp1776
g10
Vz
p1777
sg12
V90
p1778
sg14
Vz
p1779
sg16
g17
(S'\x07\xdc\x05\x0e\x0e9\x18\x0c\xd0b'
p1780
tp1781
Rp1782
sg21
V80
p1783
sg23
g1773
sbsS'-0x840d0abdd1d8297'
p1784
g4
(g5
g6
Ntp1785
Rp1786
(dp1787
g10
V02/16/2012
p1788
sg12
V-122.395234
p1789
sg14
V02/16/2012
p1790
sg16
g17
(S"\x07\xdc\x05\x0f\x12\x06'\x0c\x96\xcd"
p1791
tp1792
Rp1793
sg21
V37.776289
p1794
sg23
g1784
sbsS'0x3efd31565ad932f4'
p1795
g4
(g5
g6
Ntp1796
Rp1797
(dp1798
g10
Vx
p1799
sg12
V-122.395234
p1800
sg14
Vx
p1801
sg16
g17
(S'\x07\xdc\x05\x0e\x14!\x18\x05\xe8\xe9'
p1802
tp1803
Rp1804
sg21
V37.776289
p1805
sg23
g1795
sbsS'-0x41b95f9a8abc72b0'
p1806
g4
(g5
g6
Ntp1807
Rp1808
(dp1809
g10
Vx
p1810
sg12
V-122.395234
p1811
sg14
Vx
p1812
sg16
g17
(S"\x07\xdc\x05\x0e\x0e',\x07\r\xc8"
p1813
tp1814
Rp1815
sg21
V37.776289
p1816
sg23
g1806
sbsS'0x2d3d09ef1bc55645'
p1817
g4
(g5
g6
Ntp1818
Rp1819
(dp1820
g10
Vx
p1821
sg12
V-122.395234
p1822
sg14
Vx
p1823
sg16
g17
(S'\x07\xdc\x05\x0e\x13!!\x03N\x0b'
p1824
tp1825
Rp1826
sg21
V36
p1827
sg23
g1817
sbsS'-0x2eb63d1cf537c6f'
p1828
g4
(g5
g6
Ntp1829
Rp1830
(dp1831
g10
Vx
p1832
sg12
V170
p1833
sg14
Vx
p1834
sg16
g17
(S'\x07\xdc\x05\x0e\x10\x1f\x08\x0cd#'
p1835
tp1836
Rp1837
sg21
V80
p1838
sg23
g1828
sbsS'-0x7c1a4958d8476c32'
p1839
g4
(g5
g6
Ntp1840
Rp1841
(dp1842
g10
Vx
p1843
sg12
V-122.395234
p1844
sg14
Vx
p1845
sg16
g17
(S'\x07\xdc\x05\x0e\x1483\x03+\xd8'
p1846
tp1847
Rp1848
sg21
V37.776289
p1849
sg23
g1839
sbsS'-0x529130a61fabf63c'
p1850
g4
(g5
g6
Ntp1851
Rp1852
(dp1853
g10
Vx
p1854
sg12
V-122.395234
p1855
sg14
Vx
p1856
sg16
g17
(S"\x07\xdc\x05\x0e\x11'5\n\x8c\xf4"
p1857
tp1858
Rp1859
sg21
V37.776289
p1860
sg23
g1850
sbsS'0x6913b1e4f75689d1'
p1861
g4
(g5
g6
Ntp1862
Rp1863
(dp1864
g10
Vx
p1865
sg12
V-73.5550
p1866
sg14
Vx
p1867
sg16
g17
(S'\x07\xdc\x05\x0e\x17#\x0f\x06\xa5\x1d'
p1868
tp1869
Rp1870
sg21
V45.5081
p1871
sg23
g1861
sbsS'-0x3e3c0886ec16d11d'
p1872
g4
(g5
g6
Ntp1873
Rp1874
(dp1875
g10
Vx
p1876
sg12
V-122.395234
p1877
sg14
Vx
p1878
sg16
g17
(S'\x07\xdc\x05\x0e\x13!\x06\x0cg\xe0'
p1879
tp1880
Rp1881
sg21
V36
p1882
sg23
g1872
sbsS'0x100747128893ac26'
p1883
g4
(g5
g6
Ntp1884
Rp1885
(dp1886
g10
Vx
p1887
sg12
V-73.5550
p1888
sg14
Vx
p1889
sg16
g17
(S'\x07\xdc\x05\x0e\x17\x10"\x02\xec\x01'
p1890
tp1891
Rp1892
sg21
V45.5081
p1893
sg23
g1883
sbsS'-0x24074c0795801b82'
p1894
g4
(g5
g6
Ntp1895
Rp1896
(dp1897
g10
Vx
p1898
sg12
V-122.395234
p1899
sg14
Vx
p1900
sg16
g17
(S'\x07\xdc\x05\x0e\x0e+*\x07M\x10'
p1901
tp1902
Rp1903
sg21
V37.776289
p1904
sg23
g1894
sbsS'0x61deb7a828c4069e'
p1905
g4
(g5
g6
Ntp1906
Rp1907
(dp1908
g10
V02/16/2012
p1909
sg12
V-122.395234
p1910
sg14
V02/16/2012
p1911
sg16
g17
(S'\x07\xdc\x05\x0f\x11\x144\r\x1cc'
p1912
tp1913
Rp1914
sg21
V37.776289
p1915
sg23
g1905
sbsS'-0x29474c2b38d9a660'
p1916
g4
(g5
g6
Ntp1917
Rp1918
(dp1919
g10
V02/16/2012
p1920
sg12
V-122.395234
p1921
sg14
V02/16/2012
p1922
sg16
g17
(S'\x07\xdc\x05\x0f\x11)\x17\x0b\xa5\x08'
p1923
tp1924
Rp1925
sg21
V80
p1926
sg23
g1916
sbsS'-0x1bf93a2920f29fe1'
p1927
g4
(g5
g6
Ntp1928
Rp1929
(dp1930
g10
Vx
p1931
sg12
V-122.395234
p1932
sg14
Vx
p1933
sg16
g17
(S'\x07\xdc\x05\x0e\x0e5\t\x05\x97\xc6'
p1934
tp1935
Rp1936
sg21
V37.776289
p1937
sg23
g1927
sbsS'0x4a43187b8bacb9b2'
p1938
g4
(g5
g6
Ntp1939
Rp1940
(dp1941
g10
Vx
p1942
sg12
V-122.395234
p1943
sg14
Vx
p1944
sg16
g17
(S'\x07\xdc\x05\x0e\x15\x1a\x16\x02s\x1f'
p1945
tp1946
Rp1947
sg21
V37.776289
p1948
sg23
g1938
sbsS'-0x4f1779b7d894e15f'
p1949
g4
(g5
g6
Ntp1950
Rp1951
(dp1952
g10
Vx
p1953
sg12
V-122.395234
p1954
sg14
Vx
p1955
sg16
g17
(S'\x07\xdc\x05\x0e\x14;\n\x0e\x7f\xa6'
p1956
tp1957
Rp1958
sg21
V37.776289
p1959
sg23
g1949
sbsS'0xccd10452ef07a99'
p1960
g4
(g5
g6
Ntp1961
Rp1962
(dp1963
g10
Vx
p1964
sg12
V-122.395234
p1965
sg14
Vx
p1966
sg16
g17
(S'\x07\xdc\x05\x0e\x11%\x1b\n\xde;'
p1967
tp1968
Rp1969
sg21
V37.776289
p1970
sg23
g1960
sbsS'0x295acda85e67768c'
p1971
g4
(g5
g6
Ntp1972
Rp1973
(dp1974
g10
Vx
p1975
sg12
V-122.395234
p1976
sg14
Vx
p1977
sg16
g17
(S'\x07\xdc\x05\x0e\x0e-"\x002N'
p1978
tp1979
Rp1980
sg21
V37.776289
p1981
sg23
g1971
sbsS'-0x77cddf81771c9168'
p1982
g4
(g5
g6
Ntp1983
Rp1984
(dp1985
g10
V02/16/2012
p1986
sg12
V-122.395234
p1987
sg14
V02/16/2012
p1988
sg16
g17
(S'\x07\xdc\x05\x0f\x11\x07\x16\x02Z='
p1989
tp1990
Rp1991
sg21
V37.776289
p1992
sg23
g1982
sbsS'0x6f7dacef4f091af8'
p1993
g4
(g5
g6
Ntp1994
Rp1995
(dp1996
g10
Vx
p1997
sg12
V122.395234
p1998
sg14
Vx
p1999
sg16
g17
(S'\x07\xdc\x05\x0e\x14\x06\x00\t\xa60'
p2000
tp2001
Rp2002
sg21
V37.776289
p2003
sg23
g1993
sbsS'0x684678d34e1a7c1'
p2004
g4
(g5
g6
Ntp2005
Rp2006
(dp2007
g10
V02/16/2012
p2008
sg12
V-122.395234
p2009
sg14
V02/16/2012
p2010
sg16
g17
(S'\x07\xdc\x05\x0f\x11\x0e\x01\r\xa6\xcf'
p2011
tp2012
Rp2013
sg21
V37.776289
p2014
sg23
g2004
sbsS'0x201d331e1d110513'
p2015
g4
(g5
g6
Ntp2016
Rp2017
(dp2018
g10
Vx
p2019
sg12
V-122.395234
p2020
sg14
Vx
p2021
sg16
g17
(S'\x07\xdc\x05\x0e\x13.,\t\x0c '
p2022
tp2023
Rp2024
sg21
V37.776289
p2025
sg23
g2015
sbsS'0x2609a0237d3a0afd'
p2026
g4
(g5
g6
Ntp2027
Rp2028
(dp2029
g10
Vx
p2030
sg12
V-122.395234
p2031
sg14
Vx
p2032
sg16
g17
(S'\x07\xdc\x05\x0e\x14!&\t\xd1-'
p2033
tp2034
Rp2035
sg21
V37.776289
p2036
sg23
g2026
sbsS'0x7bf9c9b7183c2fec'
p2037
g4
(g5
g6
Ntp2038
Rp2039
(dp2040
g10
Vx
p2041
sg12
V-122.395234
p2042
sg14
Vx
p2043
sg16
g17
(S'\x07\xdc\x05\x0e\x13#\t\x01\xfc\x08'
p2044
tp2045
Rp2046
sg21
V36
p2047
sg23
g2037
sbsS'-0x1c21abc1e1d41f62'
p2048
g4
(g5
g6
Ntp2049
Rp2050
(dp2051
g10
Vx
p2052
sg12
V-122.395234
p2053
sg14
Vx
p2054
sg16
g17
(S'\x07\xdc\x05\x0e\x14\x02,\n\xe2\xd5'
p2055
tp2056
Rp2057
sg21
V37.776289
p2058
sg23
g2048
sbsS'-0x66b28b6f4e9e447'
p2059
g4
(g5
g6
Ntp2060
Rp2061
(dp2062
g10
Vx
p2063
sg12
V-122.395234
p2064
sg14
Vx
p2065
sg16
g17
(S'\x07\xdc\x05\x0e\x11*!\x0c8f'
p2066
tp2067
Rp2068
sg21
V37.776289
p2069
sg23
g2059
sbsS'0x6140df639cbfa77a'
p2070
g4
(g5
g6
Ntp2071
Rp2072
(dp2073
g10
Vz
p2074
sg12
V170
p2075
sg14
Vz
p2076
sg16
g17
(S'\x07\xdc\x05\x0e\x0f\x08\n\x06\xff\xe1'
p2077
tp2078
Rp2079
sg21
V80
p2080
sg23
g2070
sbsS'0x23dbf5afef8ca0f'
p2081
g4
(g5
g6
Ntp2082
Rp2083
(dp2084
g10
Vx
p2085
sg12
V-122.395234
p2086
sg14
Vx
p2087
sg16
g17
(S'\x07\xdc\x05\x0e\x14\x02\x1d\rZl'
p2088
tp2089
Rp2090
sg21
V37.776289
p2091
sg23
g2081
sbsS'0x3a83e899915cde7a'
p2092
g4
(g5
g6
Ntp2093
Rp2094
(dp2095
g10
Vx
p2096
sg12
V-122.395234
p2097
sg14
Vx
p2098
sg16
g17
(S'\x07\xdc\x05\x0e\x15\x04)\x08\xdc\xcb'
p2099
tp2100
Rp2101
sg21
V37.776289
p2102
sg23
g2092
sbsS'0x3be0610e4bebdeb8'
p2103
g4
(g5
g6
Ntp2104
Rp2105
(dp2106
g10
Vz
p2107
sg12
V-122.395234
p2108
sg14
Vz
p2109
sg16
g17
(S'\x07\xdc\x05\x0e\x0f\x02\x08\x05\xd2\xfb'
p2110
tp2111
Rp2112
sg21
V37.776289
p2113
sg23
g2103
sbsS'0xfd3caeda99c0772'
p2114
g4
(g5
g6
Ntp2115
Rp2116
(dp2117
g10
Vx
p2118
sg12
V-122.395234
p2119
sg14
Vx
p2120
sg16
g17
(S'\x07\xdc\x05\x0e\x133\x1b\rb\xcb'
p2121
tp2122
Rp2123
sg21
V37.776289
p2124
sg23
g2114
sbsS'-0x309b102941faaa2f'
p2125
g4
(g5
g6
Ntp2126
Rp2127
(dp2128
g10
Vz
p2129
sg12
V-122.395234
p2130
sg14
Vz
p2131
sg16
g17
(S'\x07\xdc\x05\x0e\x0f\x02\x0c\x0e~\x1d'
p2132
tp2133
Rp2134
sg21
V37.776289
p2135
sg23
g2125
sbsS'-0x5299dc71bc364176'
p2136
g4
(g5
g6
Ntp2137
Rp2138
(dp2139
g10
Vx
p2140
sg12
V-122.395234
p2141
sg14
Vx
p2142
sg16
g17
(S'\x07\xdc\x05\x0e\x13\x19\x1d\x08,\x9c'
p2143
tp2144
Rp2145
sg21
V37.776289
p2146
sg23
g2136
sbsS'-0x3b01395f496b260'
p2147
g4
(g5
g6
Ntp2148
Rp2149
(dp2150
g10
V02/16/2012
p2151
sg12
V-122.395234
p2152
sg14
V02/16/2012
p2153
sg16
g17
(S'\x07\xdc\x05\x0f\x12\x02\x06\n$K'
p2154
tp2155
Rp2156
sg21
V37.776289
p2157
sg23
g2147
sbsS'0x3eb2f2c7c431fef6'
p2158
g4
(g5
g6
Ntp2159
Rp2160
(dp2161
g10
Vx
p2162
sg12
V-122.395234
p2163
sg14
Vx
p2164
sg16
g17
(S'\x07\xdc\x05\x0e\x15\x19;\t\xdao'
p2165
tp2166
Rp2167
sg21
V37.776289
p2168
sg23
g2158
sbsS'-0x4af02662b39f8ca'
p2169
g4
(g5
g6
Ntp2170
Rp2171
(dp2172
g10
Vx
p2173
sg12
V-122.395234
p2174
sg14
Vx
p2175
sg16
g17
(S'\x07\xdc\x05\x0e\x16)\x03\x03\xf5='
p2176
tp2177
Rp2178
sg21
V37.776289
p2179
sg23
g2169
sbsS'0x1d62bcf654e34803'
p2180
g4
(g5
g6
Ntp2181
Rp2182
(dp2183
g10
Vx
p2184
sg12
V122.395234
p2185
sg14
Vx
p2186
sg16
g17
(S'\x07\xdc\x05\x0e\x13:\x04\x06\xed\xbc'
p2187
tp2188
Rp2189
sg21
V37.776289
p2190
sg23
g2180
sbsS'-0x6778553edb8b0ce9'
p2191
g4
(g5
g6
Ntp2192
Rp2193
(dp2194
g10
Vx
p2195
sg12
V-122.395234
p2196
sg14
Vx
p2197
sg16
g17
(S'\x07\xdc\x05\x0e\x13 \x00\x00vE'
p2198
tp2199
Rp2200
sg21
V40
p2201
sg23
g2191
sbsS'0x78f7b21fc8660b3d'
p2202
g4
(g5
g6
Ntp2203
Rp2204
(dp2205
g10
V02/16/2012
p2206
sg12
V-122.395234
p2207
sg14
V02/16/2012
p2208
sg16
g17
(S'\x07\xdc\x05\x0f\x12\x06\x07\x078\xe8'
p2209
tp2210
Rp2211
sg21
V37.776289
p2212
sg23
g2202
sbsS'0x8c410aff2656905'
p2213
g4
(g5
g6
Ntp2214
Rp2215
(dp2216
g10
Vx
p2217
sg12
V-122.395234
p2218
sg14
Vx
p2219
sg16
g17
(S'\x07\xdc\x05\x0e\x1363\x07W\xe8'
p2220
tp2221
Rp2222
sg21
V37.776289
p2223
sg23
g2213
sbssS'response'
p2224
(dp2225
S'pwstations'
p2226
(lp2227
g4
(cmodel
PersonalStation
p2228
g6
Ntp2229
Rp2230
(dp2231
S'distance'
p2232
I0
sS'stationid'
p2233
VKCASANFR53
p2234
sbag4
(g2228
g6
Ntp2235
Rp2236
(dp2237
g2232
I1
sg2233
VKCASANFR108
p2238
sbag4
(g2228
g6
Ntp2239
Rp2240
(dp2241
g2232
I0
sg2233
VKCASANFR14
p2242
sbag4
(g2228
g6
Ntp2243
Rp2244
(dp2245
g2232
I0
sg2233
VKCASANFR113
p2246
sbag4
(g2228
g6
Ntp2247
Rp2248
(dp2249
g2232
I1
sg2233
VKCASANFR131
p2250
sbag4
(g2228
g6
Ntp2251
Rp2252
(dp2253
g2232
I2
sg2233
VKCASANFR58
p2254
sbag4
(g2228
g6
Ntp2255
Rp2256
(dp2257
g2232
I2
sg2233
VKCASANFR79
p2258
sbag4
(g2228
g6
Ntp2259
Rp2260
(dp2261
g2232
I1
sg2233
VKCASANFR102
p2262
sbag4
(g2228
g6
Ntp2263
Rp2264
(dp2265
g2232
I4
sg2233
VMCQ147
p2266
sbag4
(g2228
g6
Ntp2267
Rp2268
(dp2269
g2232
I3
sg2233
VKPCASANF2
p2270
sbag4
(g2228
g6
Ntp2271
Rp2272
(dp2273
g2232
I3
sg2233
VKCASANFR114
p2274
sbag4
(g2228
g6
Ntp2275
Rp2276
(dp2277
g2232
I3
sg2233
VMSFOC1
p2278
sbag4
(g2228
g6
Ntp2279
Rp2280
(dp2281
g2232
I2
sg2233
VKCASANFR137
p2282
sbag4
(g2228
g6
Ntp2283
Rp2284
(dp2285
g2232
I4
sg2233
VKCASANFR3
p2286
sbag4
(g2228
g6
Ntp2287
Rp2288
(dp2289
g2232
I4
sg2233
VKCASANFR86
p2290
sbag4
(g2228
g6
Ntp2291
Rp2292
(dp2293
g2232
I4
sg2233
VKCASANFR98
p2294
sbag4
(g2228
g6
Ntp2295
Rp2296
(dp2297
g2232
I5
sg2233
VKCASANFR73
p2298
sbag4
(g2228
g6
Ntp2299
Rp2300
(dp2301
g2232
I4
sg2233
VKCASANFR76
p2302
sbag4
(g2228
g6
Ntp2303
Rp2304
(dp2305
g2232
I5
sg2233
VKCASANFR135
p2306
sbag4
(g2228
g6
Ntp2307
Rp2308
(dp2309
g2232
I5
sg2233
VKCASANFR110
p2310
sbag4
(g2228
g6
Ntp2311
Rp2312
(dp2313
g2232
I6
sg2233
VMC9629
p2314
sbag4
(g2228
g6
Ntp2315
Rp2316
(dp2317
g2232
I5
sg2233
VKCASANFR34
p2318
sbag4
(g2228
g6
Ntp2319
Rp2320
(dp2321
g2232
I6
sg2233
VKCASANFR70
p2322
sbag4
(g2228
g6
Ntp2323
Rp2324
(dp2325
g2232
I5
sg2233
VKCASANFR82
p2326
sbag4
(g2228
g6
Ntp2327
Rp2328
(dp2329
g2232
I6
sg2233
VKCASANFR133
p2330
sbag4
(g2228
g6
Ntp2331
Rp2332
(dp2333
g2232
I6
sg2233
VKCASANFR46
p2334
sbag4
(g2228
g6
Ntp2335
Rp2336
(dp2337
g2232
I6
sg2233
VKCASANFR72
p2338
sbag4
(g2228
g6
Ntp2339
Rp2340
(dp2341
g2232
I7
sg2233
VKCASANFR130
p2342
sbag4
(g2228
g6
Ntp2343
Rp2344
(dp2345
g2232
I7
sg2233
VKCASANFR109
p2346
sbag4
(g2228
g6
Ntp2347
Rp2348
(dp2349
g2232
I6
sg2233
VKCASANFR128
p2350
sbag4
(g2228
g6
Ntp2351
Rp2352
(dp2353
g2232
I8
sg2233
VKCAALAME6
p2354
sbag4
(g2228
g6
Ntp2355
Rp2356
(dp2357
g2232
I8
sg2233
VMD8533
p2358
sbag4
(g2228
g6
Ntp2359
Rp2360
(dp2361
g2232
I10
sg2233
VKCASANFR100
p2362
sbag4
(g2228
g6
Ntp2363
Rp2364
(dp2365
g2232
I10
sg2233
VMAS891
p2366
sbasS'airports'
p2367
(lp2368
g4
(cmodel
AirportStation
p2369
g6
Ntp2370
Rp2371
(dp2372
S'icao'
p2373
VKOAK
p2374
sS'city'
p2375
VOakland
p2376
sg12
V-122.22000122
p2377
sg21
V37.72000122
p2378
sbag4
(g2369
g6
Ntp2379
Rp2380
(dp2381
g2373
VKSFO
p2382
sg2375
VSan Francisco
p2383
sg12
V-122.37000275
p2384
sg21
V37.61999893
p2385
sbag4
(g2369
g6
Ntp2386
Rp2387
(dp2388
g2373
VKHWD
p2389
sg2375
VHayward
p2390
sg12
V-122.12000275
p2391
sg21
V37.65999985
p2392
sbag4
(g2369
g6
Ntp2393
Rp2394
(dp2395
g2373
VKHAF
p2396
sg2375
VHalf Moon Bay
p2397
sg12
V-122.50000000
p2398
sg21
V37.50999832
p2399
sbass.