(dp0
S'request'
p1
(dp2
S'0x48be562b48014d49'
p3
ccopy_reg
_reconstructor
p4
(cmodel
Request
p5
c__builtin__
object
p6
Ntp7
Rp8
(dp9
S'dateS'
p10
Vx
p11
sS'longitude'
p12
V-122.395234
p13
sS'dateE'
p14
Vx
p15
sS'time'
p16
cdatetime
datetime
p17
(S'\x07\xdc\x05\x0e\x139\x05\x02\xb9V'
p18
tp19
Rp20
sS'latitude'
p21
V37.776289
p22
sS'id'
p23
g3
sbsS'-0x50bc6abecb20b2c8'
p24
g4
(g5
g6
Ntp25
Rp26
(dp27
g10
Vx
p28
sg12
V-122.395234
p29
sg14
Vx
p30
sg16
g17
(S'\x07\xdc\x05\x0e\x14\x1f\x1a\x04\x8b)'
p31
tp32
Rp33
sg21
V37.776289
p34
sg23
g24
sbsS'0x2218f229f7e6fcd3'
p35
g4
(g5
g6
Ntp36
Rp37
(dp38
g10
Vx
p39
sg12
V-122.395234
p40
sg14
Vx
p41
sg16
g17
(S'\x07\xdc\x05\x0e\x17\x03!\x0c\x7fF'
p42
tp43
Rp44
sg21
V37.776289
p45
sg23
g35
sbsS'0x2d09427ce5af20c3'
p46
g4
(g5
g6
Ntp47
Rp48
(dp49
g10
Vz
p50
sg12
V90
p51
sg14
Vz
p52
sg16
g17
(S'\x07\xdc\x05\x0e\x0e88\x04KQ'
p53
tp54
Rp55
sg21
V80
p56
sg23
g46
sbsS'-0x96ad79cb3775848'
p57
g4
(g5
g6
Ntp58
Rp59
(dp60
g10
Vx
p61
sg12
V-122.395234
p62
sg14
Vx
p63
sg16
g17
(S'\x07\xdc\x05\x0e\x17\x03)\x0b>]'
p64
tp65
Rp66
sg21
V37.776289
p67
sg23
g57
sbsS'0x194b675879950e64'
p68
g4
(g5
g6
Ntp69
Rp70
(dp71
g10
Vx
p72
sg12
V-122.395234
p73
sg14
Vx
p74
sg16
g17
(S'\x07\xdc\x05\x0e\x0e1;\x0f\n\xc2'
p75
tp76
Rp77
sg21
V37.776289
p78
sg23
g68
sbsS'0x34d19b98917bf554'
p79
g4
(g5
g6
Ntp80
Rp81
(dp82
g10
Vx
p83
sg12
V-122.395234
p84
sg14
Vx
p85
sg16
g17
(S'\x07\xdc\x05\x0e\x17\x03,\x06c<'
p86
tp87
Rp88
sg21
V37.776289
p89
sg23
g79
sbsS'-0x14f426f35793d3e6'
p90
g4
(g5
g6
Ntp91
Rp92
(dp93
g10
V02/16/2012
p94
sg12
V-122.395234
p95
sg14
V02/16/2012
p96
sg16
g17
(S'\x07\xdc\x05\x0f\x1221\x03\xe3|'
p97
tp98
Rp99
sg21
V37.776289
p100
sg23
g90
sbsS'-0x309b102941faaa2f'
p101
g4
(g5
g6
Ntp102
Rp103
(dp104
g10
Vz
p105
sg12
V-122.395234
p106
sg14
Vz
p107
sg16
g17
(S'\x07\xdc\x05\x0e\x0f\x02\x0c\x0e~\x1d'
p108
tp109
Rp110
sg21
V37.776289
p111
sg23
g101
sbsS'0x54e9cd926e7f9dfe'
p112
g4
(g5
g6
Ntp113
Rp114
(dp115
g10
Vx
p116
sg12
V-122.395234
p117
sg14
Vx
p118
sg16
g17
(S'\x07\xdc\x05\x0e\x0e4\x0c\x04\x16\xcf'
p119
tp120
Rp121
sg21
V37.776289
p122
sg23
g112
sbsS'-0x1783110448cf9990'
p123
g4
(g5
g6
Ntp124
Rp125
(dp126
g10
V02/16/2012
p127
sg12
V-122.395234
p128
sg14
V02/16/2012
p129
sg16
g17
(S'\x07\xdc\x05\x0f\x12*9\x00*\xb2'
p130
tp131
Rp132
sg21
V37.776289
p133
sg23
g123
sbsS'-0x77f101605418c321'
p134
g4
(g5
g6
Ntp135
Rp136
(dp137
g10
Vx
p138
sg12
V180
p139
sg14
Vx
p140
sg16
g17
(S'\x07\xdc\x05\x0e\x0f1:\x01\x1e('
p141
tp142
Rp143
sg21
V91
p144
sg23
g134
sbsS'-0x2ebcab8d86d18130'
p145
g4
(g5
g6
Ntp146
Rp147
(dp148
g10
Vx
p149
sg12
V122.395234
p150
sg14
Vx
p151
sg16
g17
(S'\x07\xdc\x05\x0e\x139\x0b\x03\xb0W'
p152
tp153
Rp154
sg21
V37.776289
p155
sg23
g145
sbsS'0x1355de66eb7072cc'
p156
g4
(g5
g6
Ntp157
Rp158
(dp159
g10
Vx
p160
sg12
V-122.395234
p161
sg14
Vx
p162
sg16
g17
(S'\x07\xdc\x05\x0e\x0e-,\x0c\x82\xfc'
p163
tp164
Rp165
sg21
V37.776289
p166
sg23
g156
sbsS'-0x1d0e6b6f905b762b'
p167
g4
(g5
g6
Ntp168
Rp169
(dp170
g10
Vz
p171
sg12
V90
p172
sg14
Vz
p173
sg16
g17
(S'\x07\xdc\x05\x0e\x0e94\t\xd6\xb8'
p174
tp175
Rp176
sg21
V80
p177
sg23
g167
sbsS'-0x3bc0e795c2d91fc6'
p178
g4
(g5
g6
Ntp179
Rp180
(dp181
g10
V02/16/2012
p182
sg12
V-122.395234
p183
sg14
V02/16/2012
p184
sg16
g17
(S'\x07\xdc\x05\x0f\x13\x05\x1c\x0b\xd9%'
p185
tp186
Rp187
sg21
V37.776289
p188
sg23
g178
sbsS'0x5a11ac42c83dbbab'
p189
g4
(g5
g6
Ntp190
Rp191
(dp192
g10
Vx
p193
sg12
V-122.395234
p194
sg14
Vx
p195
sg16
g17
(S'\x07\xdc\x05\x0e\x13\x1e\x18\n\xe6\x9d'
p196
tp197
Rp198
sg21
V40
p199
sg23
g189
sbsS'-0x3e3c0886ec16d11d'
p200
g4
(g5
g6
Ntp201
Rp202
(dp203
g10
Vx
p204
sg12
V-122.395234
p205
sg14
Vx
p206
sg16
g17
(S'\x07\xdc\x05\x0e\x13!\x06\x0cg\xe0'
p207
tp208
Rp209
sg21
V36
p210
sg23
g200
sbsS'0x423f2cedbe55fa15'
p211
g4
(g5
g6
Ntp212
Rp213
(dp214
g10
Vx
p215
sg12
V-122.395234
p216
sg14
Vx
p217
sg16
g17
(S'\x07\xdc\x05\x0e\x13\x00\x17\r\x96\xe7'
p218
tp219
Rp220
sg21
V37.776289
p221
sg23
g211
sbsS'0xe403be237950991'
p222
g4
(g5
g6
Ntp223
Rp224
(dp225
g10
Vz
p226
sg12
V170
p227
sg14
Vz
p228
sg16
g17
(S'\x07\xdc\x05\x0e\x0f\x02\x1c\x06\x9bb'
p229
tp230
Rp231
sg21
V80
p232
sg23
g222
sbsS'-0x148b9843b3dd1180'
p233
g4
(g5
g6
Ntp234
Rp235
(dp236
g10
Vx
p237
sg12
V170
p238
sg14
Vx
p239
sg16
g17
(S'\x07\xdc\x05\x0e\x10\x0c0\x0c\x823'
p240
tp241
Rp242
sg21
V80
p243
sg23
g233
sbsS'-0x580411b7800e23b8'
p244
g4
(g5
g6
Ntp245
Rp246
(dp247
g10
Vx
p248
sg12
V-122.395234
p249
sg14
Vx
p250
sg16
g17
(S'\x07\xdc\x05\x0e\x14"#\x02\xf1\xd3'
p251
tp252
Rp253
sg21
V37.776289
p254
sg23
g244
sbsS'0x49f21d2c59ca3e23'
p255
g4
(g5
g6
Ntp256
Rp257
(dp258
g10
Vz
p259
sg12
V170
p260
sg14
Vz
p261
sg16
g17
(S'\x07\xdc\x05\x0e\x0f\x0c6\tu\xc1'
p262
tp263
Rp264
sg21
V80
p265
sg23
g255
sbsS'-0x69c62ca7ff1670bb'
p266
g4
(g5
g6
Ntp267
Rp268
(dp269
g10
V02/16/2012
p270
sg12
V-122.395234
p271
sg14
V02/16/2012
p272
sg16
g17
(S'\x07\xdc\x05\x0f\x112\x1e\x0b\xf33'
p273
tp274
Rp275
sg21
V37.776289
p276
sg23
g266
sbsS'0x8856bf1706fc4b0'
p277
g4
(g5
g6
Ntp278
Rp279
(dp280
g10
V02/16/2012
p281
sg12
V-122.395234
p282
sg14
V02/16/2012
p283
sg16
g17
(S'\x07\xdc\x05\x0f\x12\x02\x07\x08\xd0\xde'
p284
tp285
Rp286
sg21
V37.776289
p287
sg23
g277
sbsS'-0x456613309d203a66'
p288
g4
(g5
g6
Ntp289
Rp290
(dp291
g10
V02/16/2012
p292
sg12
V-122.395234
p293
sg14
V02/16/2012
p294
sg16
g17
(S'\x07\xdc\x05\x0f\x11:\x12\nIS'
p295
tp296
Rp297
sg21
V37.776289
p298
sg23
g288
sbsS'-0xcdc85bbddd186b5'
p299
g4
(g5
g6
Ntp300
Rp301
(dp302
g10
Vz
p303
sg12
V90
p304
sg14
Vz
p305
sg16
g17
(S'\x07\xdc\x05\x0e\x0e77\x06\xeb!'
p306
tp307
Rp308
sg21
V80
p309
sg23
g299
sbsS'-0x1c177ef859c0784d'
p310
g4
(g5
g6
Ntp311
Rp312
(dp313
g10
Vx
p314
sg12
V-122.395234
p315
sg14
Vx
p316
sg16
g17
(S'\x07\xdc\x05\x0e\x11$,\x03\xe6\x9c'
p317
tp318
Rp319
sg21
V37.776289
p320
sg23
g310
sbsS'0x20258b5095965694'
p321
g4
(g5
g6
Ntp322
Rp323
(dp324
g10
Vz
p325
sg12
V90
p326
sg14
Vz
p327
sg16
g17
(S'\x07\xdc\x05\x0e\x0e7$\x02mi'
p328
tp329
Rp330
sg21
V80
p331
sg23
g321
sbsS'0xab2301222f0c172'
p332
g4
(g5
g6
Ntp333
Rp334
(dp335
g10
V02/16/2012
p336
sg12
V-122.395234
p337
sg14
V02/16/2012
p338
sg16
g17
(S'\x07\xdc\x05\x0f\x11\x14-\x0e\xa0\xaf'
p339
tp340
Rp341
sg21
V37.776289
p342
sg23
g332
sbsS'0x74d98eeab0bbcf91'
p343
g4
(g5
g6
Ntp344
Rp345
(dp346
g10
Vx
p347
sg12
V-122.395234
p348
sg14
Vx
p349
sg16
g17
(S'\x07\xdc\x05\x0e\x11\x12(\x0e.\xa5'
p350
tp351
Rp352
sg21
V37.776289
p353
sg23
g343
sbsS'-0x6d92b9fe2f07e1a1'
p354
g4
(g5
g6
Ntp355
Rp356
(dp357
g10
Vz
p358
sg12
V-122.395234
p359
sg14
Vz
p360
sg16
g17
(S'\x07\xdc\x05\x0e\x0f\x02\n\x05Hx'
p361
tp362
Rp363
sg21
V37.776289
p364
sg23
g354
sbsS'0x549505a4fe9921d4'
p365
g4
(g5
g6
Ntp366
Rp367
(dp368
g10
V02/16/2012
p369
sg12
V-122.395234
p370
sg14
V02/16/2012
p371
sg16
g17
(S'\x07\xdc\x05\x0f\x12/\x1d\x02\x07"'
p372
tp373
Rp374
sg21
V37.776289
p375
sg23
g365
sbsS'0x609355d74ced4e4e'
p376
g4
(g5
g6
Ntp377
Rp378
(dp379
g10
Vx
p380
sg12
V-122.395234
p381
sg14
Vx
p382
sg16
g17
(S'\x07\xdc\x05\x0e\x13 \x1a\x0c\x04\x0f'
p383
tp384
Rp385
sg21
V30
p386
sg23
g376
sbsS'-0x5e08dd1f69fab922'
p387
g4
(g5
g6
Ntp388
Rp389
(dp390
g10
Vx
p391
sg12
V-122.395234
p392
sg14
Vx
p393
sg16
g17
(S'\x07\xdc\x05\x0e\x0e,\x06\n\xb3h'
p394
tp395
Rp396
sg21
V37.776289
p397
sg23
g387
sbsS'-0x79df616317fe6681'
p398
g4
(g5
g6
Ntp399
Rp400
(dp401
g10
Vx
p402
sg12
V-122.395234
p403
sg14
Vx
p404
sg16
g17
(S'\x07\xdc\x05\x0e\x11.\x16\x02\xb9,'
p405
tp406
Rp407
sg21
V37.776289
p408
sg23
g398
sbsS'0x317ea0b0dcbc6129'
p409
g4
(g5
g6
Ntp410
Rp411
(dp412
g10
Vx
p413
sg12
V-122.395234
p414
sg14
Vx
p415
sg16
g17
(S'\x07\xdc\x05\x0e\x17\x02\x02\x04T\xa1'
p416
tp417
Rp418
sg21
V37.776289
p419
sg23
g409
sbsS'-0x5201548bdc738c77'
p420
g4
(g5
g6
Ntp421
Rp422
(dp423
g10
Vx
p424
sg12
V-73.5550
p425
sg14
Vx
p426
sg16
g17
(S'\x07\xdc\x05\x0e\x17\x046\x06\xef\xeb'
p427
tp428
Rp429
sg21
V45.5081
p430
sg23
g420
sbsS'0xb0a3accaffac99d'
p431
g4
(g5
g6
Ntp432
Rp433
(dp434
g10
V02/16/2012
p435
sg12
Nsg14
V02/16/2012
p436
sg16
g17
(S'\x07\xdc\x05\x0f\x13\n \x00\x15K'
p437
tp438
Rp439
sg21
Nsg23
g431
sbsS'0xccd10452ef07a99'
p440
g4
(g5
g6
Ntp441
Rp442
(dp443
g10
Vx
p444
sg12
V-122.395234
p445
sg14
Vx
p446
sg16
g17
(S'\x07\xdc\x05\x0e\x11%\x1b\n\xde;'
p447
tp448
Rp449
sg21
V37.776289
p450
sg23
g440
sbsS'0x10fad0fb9c3a299e'
p451
g4
(g5
g6
Ntp452
Rp453
(dp454
g10
Vz
p455
sg12
V-122.395234
p456
sg14
Vz
p457
sg16
g17
(S'\x07\xdc\x05\x0e\x0e;\x16\r\xff\xc2'
p458
tp459
Rp460
sg21
V37.776289
p461
sg23
g451
sbsS'0x63b65ebe5874471'
p462
g4
(g5
g6
Ntp463
Rp464
(dp465
g10
Vx
p466
sg12
V-122.395234
p467
sg14
Vx
p468
sg16
g17
(S'\x07\xdc\x05\x0e\x14\x055\x0f\x00\xf9'
p469
tp470
Rp471
sg21
V37.776289
p472
sg23
g462
sbsS'-0x158894e2e4e64acf'
p473
g4
(g5
g6
Ntp474
Rp475
(dp476
g10
Vx
p477
sg12
V-122.395234
p478
sg14
Vx
p479
sg16
g17
(S"\x07\xdc\x05\x0e\x13\x17&\x0f '"
p480
tp481
Rp482
sg21
V37.776289
p483
sg23
g473
sbsS'0x269c96e72f5bf692'
p484
g4
(g5
g6
Ntp485
Rp486
(dp487
g10
Vx
p488
sg12
V-122.395234
p489
sg14
Vx
p490
sg16
g17
(S'\x07\xdc\x05\x0e\x134\x12\x00\xd5\xef'
p491
tp492
Rp493
sg21
V37.776289
p494
sg23
g484
sbsS'0x4b3a5f034c0ba224'
p495
g4
(g5
g6
Ntp496
Rp497
(dp498
g10
V02/16/2012
p499
sg12
V-122.395234
p500
sg14
V02/16/2012
p501
sg16
g17
(S'\x07\xdc\x05\x0f\x13\x0b7\x07x\xfb'
p502
tp503
Rp504
sg21
V37.776289
p505
sg23
g495
sbsS'0x57a5e2a7aca72dda'
p506
g4
(g5
g6
Ntp507
Rp508
(dp509
g10
V02/16/2012
p510
sg12
V-122.395234
p511
sg14
V02/16/2012
p512
sg16
g17
(S'\x07\xdc\x05\x0f\x12-\x0b\x0bB\xae'
p513
tp514
Rp515
sg21
V37.776289
p516
sg23
g506
sbsS'-0x486f6275908fefd'
p517
g4
(g5
g6
Ntp518
Rp519
(dp520
g10
Vx
p521
sg12
V-122.395234
p522
sg14
Vx
p523
sg16
g17
(S'\x07\xdc\x05\x0e\x14 0\nZ\xde'
p524
tp525
Rp526
sg21
V37.776289
p527
sg23
g517
sbsS'-0x72715af4b83aefca'
p528
g4
(g5
g6
Ntp529
Rp530
(dp531
g10
V02/16/2012
p532
sg12
V-122.395234
p533
sg14
V02/16/2012
p534
sg16
g17
(S'\x07\xdc\x05\x0f\x12.#\x0b\x96\xcd'
p535
tp536
Rp537
sg21
V37.776289
p538
sg23
g528
sbsS'-0x54033c949b0bb3cc'
p539
g4
(g5
g6
Ntp540
Rp541
(dp542
g10
Vx
p543
sg12
V-122.395234
p544
sg14
Vx
p545
sg16
g17
(S'\x07\xdc\x05\x0e\x0e1%\x04\xfbH'
p546
tp547
Rp548
sg21
V37.776289
p549
sg23
g539
sbsS'0x4a5cbb3f02c716c1'
p550
g4
(g5
g6
Ntp551
Rp552
(dp553
g10
Vx
p554
sg12
V-122.395234
p555
sg14
Vx
p556
sg16
g17
(S'\x07\xdc\x05\x0e\x136\x13\x01\xa8/'
p557
tp558
Rp559
sg21
V37.776289
p560
sg23
g550
sbsS'-0x5afb301a32d3791b'
p561
g4
(g5
g6
Ntp562
Rp563
(dp564
g10
Vx
p565
sg12
V-122.395234
p566
sg14
Vx
p567
sg16
g17
(S'\x07\xdc\x05\x0e\x13 \x15\x07\x9e\x1b'
p568
tp569
Rp570
sg21
V40
p571
sg23
g561
sbsS'0x4b9aa673405a2327'
p572
g4
(g5
g6
Ntp573
Rp574
(dp575
g10
Vx
p576
sg12
V-122.395234
p577
sg14
Vx
p578
sg16
g17
(S'\x07\xdc\x05\x0e\x13\x18\x12\x008!'
p579
tp580
Rp581
sg21
V37.776289
p582
sg23
g572
sbsS'-0x4a9f011f331ca582'
p583
g4
(g5
g6
Ntp584
Rp585
(dp586
g10
Vz
p587
sg12
V90
p588
sg14
Vz
p589
sg16
g17
(S'\x07\xdc\x05\x0e\x0e8\x17\x0c\xe7I'
p590
tp591
Rp592
sg21
V80
p593
sg23
g583
sbsS'0x7172f77e71df2f79'
p594
g4
(g5
g6
Ntp595
Rp596
(dp597
g10
Vx
p598
sg12
V122.395234
p599
sg14
Vx
p600
sg16
g17
(S'\x07\xdc\x05\x0e\x14\x00%\x02;L'
p601
tp602
Rp603
sg21
V37.776289
p604
sg23
g594
sbsS'0x4f3f91945aa477ba'
p605
g4
(g5
g6
Ntp606
Rp607
(dp608
g10
Vx
p609
sg12
V-122.395234
p610
sg14
Vx
p611
sg16
g17
(S'\x07\xdc\x05\x0e\x0e,\x16\x05\xe5\xed'
p612
tp613
Rp614
sg21
V37.776289
p615
sg23
g605
sbsS'0x2de434033d2a130c'
p616
g4
(g5
g6
Ntp617
Rp618
(dp619
g10
V02/16/2012
p620
sg12
V-73.5550
p621
sg14
V02/16/2012
p622
sg16
g17
(S'\x07\xdc\x05\x0f\x11,9\x05\x805'
p623
tp624
Rp625
sg21
V45.5081
p626
sg23
g616
sbsS'-0x77cddf81771c9168'
p627
g4
(g5
g6
Ntp628
Rp629
(dp630
g10
V02/16/2012
p631
sg12
V-122.395234
p632
sg14
V02/16/2012
p633
sg16
g17
(S'\x07\xdc\x05\x0f\x11\x07\x16\x02Z='
p634
tp635
Rp636
sg21
V37.776289
p637
sg23
g627
sbsS'0x5def3712fecb638a'
p638
g4
(g5
g6
Ntp639
Rp640
(dp641
g10
Vx
p642
sg12
V-122.395234
p643
sg14
Vx
p644
sg16
g17
(S'\x07\xdc\x05\x0e\x13\x1b\x0b\x03\x0e\xc9'
p645
tp646
Rp647
sg21
V37.776289
p648
sg23
g638
sbsS'0x311218aa9cbb4238'
p649
g4
(g5
g6
Ntp650
Rp651
(dp652
g10
Vx
p653
sg12
V-122.395234
p654
sg14
Vx
p655
sg16
g17
(S'\x07\xdc\x05\x0e\x13\x00\x17\x0c\xed2'
p656
tp657
Rp658
sg21
V37.776289
p659
sg23
g649
sbsS'-0x541639115ed6557b'
p660
g4
(g5
g6
Ntp661
Rp662
(dp663
g10
Vx
p664
sg12
V-122.395234
p665
sg14
Vx
p666
sg16
g17
(S'\x07\xdc\x05\x0e\x13\x18\x19\x08\x9a\x08'
p667
tp668
Rp669
sg21
V37.776289
p670
sg23
g660
sbsS'0x57e88d48b38ac6bb'
p671
g4
(g5
g6
Ntp672
Rp673
(dp674
g10
Vx
p675
sg12
V-122.395234
p676
sg14
Vx
p677
sg16
g17
(S'\x07\xdc\x05\x0e\x13\x1e\x08\x0e,\x81'
p678
tp679
Rp680
sg21
V39.776289
p681
sg23
g671
sbsS'0x6f57d7b10f5dcc15'
p682
g4
(g5
g6
Ntp683
Rp684
(dp685
g10
Vx
p686
sg12
V-122.395234
p687
sg14
Vx
p688
sg16
g17
(S'\x07\xdc\x05\x0e\x12;7\x08D\xdc'
p689
tp690
Rp691
sg21
V37.776289
p692
sg23
g682
sbsS'-0x78a4c01dd85f7d5d'
p693
g4
(g5
g6
Ntp694
Rp695
(dp696
g10
Vz
p697
sg12
V170
p698
sg14
Vz
p699
sg16
g17
(S'\x07\xdc\x05\x0e\x0f\x06;\r=H'
p700
tp701
Rp702
sg21
V80
p703
sg23
g693
sbsS'-0x34c9961fe59ca036'
p704
g4
(g5
g6
Ntp705
Rp706
(dp707
g10
V02/16/2012
p708
sg12
V-122.395234
p709
sg14
V02/16/2012
p710
sg16
g17
(S'\x07\xdc\x05\x0f\x11)\x1e\x08K\xba'
p711
tp712
Rp713
sg21
V60
p714
sg23
g704
sbsS'0x3afcab4388efd810'
p715
g4
(g5
g6
Ntp716
Rp717
(dp718
g10
Vz
p719
sg12
V90
p720
sg14
Vz
p721
sg16
g17
(S'\x07\xdc\x05\x0e\x0e7\x0c\x04\xe5\x97'
p722
tp723
Rp724
sg21
V80
p725
sg23
g715
sbsS'0x6b37a924a1e02b56'
p726
g4
(g5
g6
Ntp727
Rp728
(dp729
g10
Vx
p730
sg12
V-122.395234
p731
sg14
Vx
p732
sg16
g17
(S'\x07\xdc\x05\x0e\x134\x18\r\x96\xf1'
p733
tp734
Rp735
sg21
V37.776289
p736
sg23
g726
sbsS'0x3e5459025ac0a9f1'
p737
g4
(g5
g6
Ntp738
Rp739
(dp740
g10
Vx
p741
sg12
V-122.395234
p742
sg14
Vx
p743
sg16
g17
(S'\x07\xdc\x05\x0e\x0e\x133\x04>b'
p744
tp745
Rp746
sg21
V37.776289
p747
sg23
g737
sbsS'-0x3919033e71b36bdd'
p748
g4
(g5
g6
Ntp749
Rp750
(dp751
g10
V02/16/2012
p752
sg12
V-122.395234
p753
sg14
V02/16/2012
p754
sg16
g17
(S'\x07\xdc\x05\x0f\x124(\x05\x94\xf7'
p755
tp756
Rp757
sg21
V37.776289
p758
sg23
g748
sbsS'0x64a29e0251fabed7'
p759
g4
(g5
g6
Ntp760
Rp761
(dp762
g10
V02/16/2012
p763
sg12
V-122.395234
p764
sg14
V02/16/2012
p765
sg16
g17
(S'\x07\xdc\x05\x0f\x11\t\x02\x04\xff\xd9'
p766
tp767
Rp768
sg21
V37.776289
p769
sg23
g759
sbsS'-0x71dd73d2479257b6'
p770
g4
(g5
g6
Ntp771
Rp772
(dp773
g10
V02/16/2012
p774
sg12
V-122.395234
p775
sg14
V02/16/2012
p776
sg16
g17
(S'\x07\xdc\x05\x0f\x11;*\x05\xa7\xa3'
p777
tp778
Rp779
sg21
V37.776289
p780
sg23
g770
sbsS'0x78b018dd0d9626b0'
p781
g4
(g5
g6
Ntp782
Rp783
(dp784
g10
Vx
p785
sg12
V-122.395234
p786
sg14
Vx
p787
sg16
g17
(S'\x07\xdc\x05\x0e\x15!%\x07\xc18'
p788
tp789
Rp790
sg21
V37.776289
p791
sg23
g781
sbsS'0x2807bda6d7979598'
p792
g4
(g5
g6
Ntp793
Rp794
(dp795
g10
Vx
p796
sg12
V-73.5550
p797
sg14
Vx
p798
sg16
g17
(S'\x07\xdc\x05\x0e\x17\x1d\x0c\x0b\xac\xf5'
p799
tp800
Rp801
sg21
V45.5081
p802
sg23
g792
sbsS'0x295acda85e67768c'
p803
g4
(g5
g6
Ntp804
Rp805
(dp806
g10
Vx
p807
sg12
V-122.395234
p808
sg14
Vx
p809
sg16
g17
(S'\x07\xdc\x05\x0e\x0e-"\x002N'
p810
tp811
Rp812
sg21
V37.776289
p813
sg23
g803
sbsS'-0x7a1dd0a97ff73ab4'
p814
g4
(g5
g6
Ntp815
Rp816
(dp817
g10
Vx
p818
sg12
V-122.395234
p819
sg14
Vx
p820
sg16
g17
(S'\x07\xdc\x05\x0e\x13\x1b6\x07\x99]'
p821
tp822
Rp823
sg21
V37.776289
p824
sg23
g814
sbsS'-0x4728c9c2bac24014'
p825
g4
(g5
g6
Ntp826
Rp827
(dp828
g10
Vx
p829
sg12
V-122.395234
p830
sg14
Vx
p831
sg16
g17
(S'\x07\xdc\x05\x0e\x13&8\x01~e'
p832
tp833
Rp834
sg21
V37.776289
p835
sg23
g825
sbsS'0x2b0415ba07ac5cd8'
p836
g4
(g5
g6
Ntp837
Rp838
(dp839
g10
Vx
p840
sg12
V-122.395234
p841
sg14
Vx
p842
sg16
g17
(S'\x07\xdc\x05\x0e\x11,\t\x07R\x94'
p843
tp844
Rp845
sg21
V37.776289
p846
sg23
g836
sbsS'-0x51cf18d664238da'
p847
g4
(g5
g6
Ntp848
Rp849
(dp850
g10
Vx
p851
sg12
V-122.395234
p852
sg14
Vx
p853
sg16
g17
(S'\x07\xdc\x05\x0e\x15\x04+\rx\xe0'
p854
tp855
Rp856
sg21
V37.776289
p857
sg23
g847
sbsS'0x37a2f4725b102e1'
p858
g4
(g5
g6
Ntp859
Rp860
(dp861
g10
Vx
p862
sg12
V170
p863
sg14
Vx
p864
sg16
g17
(S'\x07\xdc\x05\x0e\x10\n\x0c\x0e\x079'
p865
tp866
Rp867
sg21
V80
p868
sg23
g858
sbsS'-0x39d933b6e6e4e3e4'
p869
g4
(g5
g6
Ntp870
Rp871
(dp872
g10
Vx
p873
sg12
V-73.5550
p874
sg14
Vx
p875
sg16
g17
(S'\x07\xdc\x05\x0e\x17\x103\t\xeb&'
p876
tp877
Rp878
sg21
V45.5081
p879
sg23
g869
sbsS'0x2b247db334adb261'
p880
g4
(g5
g6
Ntp881
Rp882
(dp883
g10
Vx
p884
sg12
V122.395234
p885
sg14
Vx
p886
sg16
g17
(S'\x07\xdc\x05\x0e\x13:2\x02\x1c\xd3'
p887
tp888
Rp889
sg21
V37.776289
p890
sg23
g880
sbsS'-0x61802542f901f9dc'
p891
g4
(g5
g6
Ntp892
Rp893
(dp894
g10
V02/16/2012
p895
sg12
V-122.395234
p896
sg14
V02/16/2012
p897
sg16
g17
(S'\x07\xdc\x05\x0f\x11\x1b\x06\x05\xb6\xba'
p898
tp899
Rp900
sg21
V37.776289
p901
sg23
g891
sbsS'0x49f666b85d16fa2d'
p902
g4
(g5
g6
Ntp903
Rp904
(dp905
g10
Vx
p906
sg12
V-122.395234
p907
sg14
Vx
p908
sg16
g17
(S'\x07\xdc\x05\x0e\x15\x01\x05\x00\xfd\xb6'
p909
tp910
Rp911
sg21
V37.776289
p912
sg23
g902
sbsS'0x5a8cb59c6c5cf2d1'
p913
g4
(g5
g6
Ntp914
Rp915
(dp916
g10
V02/16/2012
p917
sg12
V-122.395234
p918
sg14
V02/16/2012
p919
sg16
g17
(S'\x07\xdc\x05\x0f\x11\x02\x11\n\xa6\xc8'
p920
tp921
Rp922
sg21
V37.776289
p923
sg23
g913
sbsS'0x4a43187b8bacb9b2'
p924
g4
(g5
g6
Ntp925
Rp926
(dp927
g10
Vx
p928
sg12
V-122.395234
p929
sg14
Vx
p930
sg16
g17
(S'\x07\xdc\x05\x0e\x15\x1a\x16\x02s\x1f'
p931
tp932
Rp933
sg21
V37.776289
p934
sg23
g924
sbsS'0x1a6c675be5931024'
p935
g4
(g5
g6
Ntp936
Rp937
(dp938
g10
Vx
p939
sg12
V-122.395234
p940
sg14
Vx
p941
sg16
g17
(S'\x07\xdc\x05\x0e\x11(,\x05\x84\xcf'
p942
tp943
Rp944
sg21
V37.776289
p945
sg23
g935
sbsS'0xcd96f1028d524b2'
p946
g4
(g5
g6
Ntp947
Rp948
(dp949
g10
V02/16/2012
p950
sg12
V-122.395234
p951
sg14
V02/16/2012
p952
sg16
g17
(S'\x07\xdc\x05\x0f\x13\x0c\x1f\x05%\xb3'
p953
tp954
Rp955
sg21
V37.776289
p956
sg23
g946
sbsS'-0x169e5f2c037b6246'
p957
g4
(g5
g6
Ntp958
Rp959
(dp960
g10
Vx
p961
sg12
V90
p962
sg14
Vx
p963
sg16
g17
(S'\x07\xdc\x05\x0e\x10\n\x06\r3e'
p964
tp965
Rp966
sg21
V80
p967
sg23
g957
sbsS'-0x3f76143f797f03b6'
p968
g4
(g5
g6
Ntp969
Rp970
(dp971
g10
V02/16/2012
p972
sg12
V-122.395234
p973
sg14
V02/16/2012
p974
sg16
g17
(S'\x07\xdc\x05\x0f\x11(-\x01\xa8\xbc'
p975
tp976
Rp977
sg21
V37.776289
p978
sg23
g968
sbsS'0x148b03a655b36bac'
p979
g4
(g5
g6
Ntp980
Rp981
(dp982
g10
V02/16/2012
p983
sg12
V-122.395234
p984
sg14
V02/16/2012
p985
sg16
g17
(S'\x07\xdc\x05\x0f\x117!\t6_'
p986
tp987
Rp988
sg21
V37.776289
p989
sg23
g979
sbsS'-0x7c9e972535f445c1'
p990
g4
(g5
g6
Ntp991
Rp992
(dp993
g10
V02/16/2012
p994
sg12
V-122.395234
p995
sg14
V02/16/2012
p996
sg16
g17
(S'\x07\xdc\x05\x0f\x12):\x02A\x94'
p997
tp998
Rp999
sg21
V37.776289
p1000
sg23
g990
sbsS'-0x3ab8508a971253e3'
p1001
g4
(g5
g6
Ntp1002
Rp1003
(dp1004
g10
Vx
p1005
sg12
V-122.395234
p1006
sg14
Vx
p1007
sg16
g17
(S'\x07\xdc\x05\x0e\x0e+\x0b\x08Zv'
p1008
tp1009
Rp1010
sg21
V37.776289
p1011
sg23
g1001
sbsS'0x2016a96eafccdac7'
p1012
g4
(g5
g6
Ntp1013
Rp1014
(dp1015
g10
Vx
p1016
sg12
V-122.395234
p1017
sg14
Vx
p1018
sg16
g17
(S'\x07\xdc\x05\x0e\x0e\x13\x10\x08\xc8c'
p1019
tp1020
Rp1021
sg21
V37.776289
p1022
sg23
g1012
sbsS'0x723ff24834c48296'
p1023
g4
(g5
g6
Ntp1024
Rp1025
(dp1026
g10
Vx
p1027
sg12
V-122.395234
p1028
sg14
Vx
p1029
sg16
g17
(S'\x07\xdc\x05\x0e\x15\t\x07\x0c\xca*'
p1030
tp1031
Rp1032
sg21
V37.776289
p1033
sg23
g1023
sbsS'-0x576d9bc7b1cc6deb'
p1034
g4
(g5
g6
Ntp1035
Rp1036
(dp1037
g10
Vx
p1038
sg12
V-122.395234
p1039
sg14
Vx
p1040
sg16
g17
(S'\x07\xdc\x05\x0e\x14\x1d;\x00\xcbY'
p1041
tp1042
Rp1043
sg21
V37.776289
p1044
sg23
g1034
sbsS'0x3ab75ff4549f126f'
p1045
g4
(g5
g6
Ntp1046
Rp1047
(dp1048
g10
V02/16/2012
p1049
sg12
V-122.395234
p1050
sg14
V02/16/2012
p1051
sg16
g17
(S'\x07\xdc\x05\x0f\x120&\x06\xf1\x95'
p1052
tp1053
Rp1054
sg21
V37.776289
p1055
sg23
g1045
sbsS'-0x109675dd02246159'
p1056
g4
(g5
g6
Ntp1057
Rp1058
(dp1059
g10
Vx
p1060
sg12
V-122.395234
p1061
sg14
Vx
p1062
sg16
g17
(S'\x07\xdc\x05\x0e\x15\x02\x14\x062\xef'
p1063
tp1064
Rp1065
sg21
V37.776289
p1066
sg23
g1056
sbsS'0x7d6314becbacacf1'
p1067
g4
(g5
g6
Ntp1068
Rp1069
(dp1070
g10
V02/16/2012
p1071
sg12
V-122.395234
p1072
sg14
V02/16/2012
p1073
sg16
g17
(S'\x07\xdc\x05\x0f\x10:7\x05d '
p1074
tp1075
Rp1076
sg21
V37.776289
p1077
sg23
g1067
sbsS'-0x52ab02d6d9ef6ce3'
p1078
g4
(g5
g6
Ntp1079
Rp1080
(dp1081
g10
Vx
p1082
sg12
V122.395234
p1083
sg14
Vx
p1084
sg16
g17
(S'\x07\xdc\x05\x0e\x14\x02\x14\x03\xfd\x02'
p1085
tp1086
Rp1087
sg21
V37.776289
p1088
sg23
g1078
sbsS'-0x402da06d336e46fa'
p1089
g4
(g5
g6
Ntp1090
Rp1091
(dp1092
g10
Vx
p1093
sg12
V122.395234
p1094
sg14
Vx
p1095
sg16
g17
(S'\x07\xdc\x05\x0e\x13:\x0c\x00Y\xd7'
p1096
tp1097
Rp1098
sg21
V37.776289
p1099
sg23
g1089
sbsS'0x3fc5242e2904383'
p1100
g4
(g5
g6
Ntp1101
Rp1102
(dp1103
g10
Vz
p1104
sg12
V170
p1105
sg14
Vz
p1106
sg16
g17
(S'\x07\xdc\x05\x0e\x0f\x06*\x08Qj'
p1107
tp1108
Rp1109
sg21
V80
p1110
sg23
g1100
sbsS'0x6a41b02d300860b'
p1111
g4
(g5
g6
Ntp1112
Rp1113
(dp1114
g10
Vx
p1115
sg12
V-122.395234
p1116
sg14
Vx
p1117
sg16
g17
(S'\x07\xdc\x05\x0e\x14\x06\x0b\ta\xef'
p1118
tp1119
Rp1120
sg21
V37.776289
p1121
sg23
g1111
sbsS'0x4b8c2d8c2c0b903a'
p1122
g4
(g5
g6
Ntp1123
Rp1124
(dp1125
g10
V02/16/2012
p1126
sg12
V-122.395234
p1127
sg14
V02/16/2012
p1128
sg16
g17
(S'\x07\xdc\x05\x0f\x11)\x10\x05m\xe5'
p1129
tp1130
Rp1131
sg21
V80
p1132
sg23
g1122
sbsS'0x7142280de74cf3d1'
p1133
g4
(g5
g6
Ntp1134
Rp1135
(dp1136
g10
V02/16/2012
p1137
sg12
V-122.395234
p1138
sg14
V02/16/2012
p1139
sg16
g17
(S'\x07\xdc\x05\x0f\x13\x04(\x0ch+'
p1140
tp1141
Rp1142
sg21
V37.776289
p1143
sg23
g1133
sbsS'0x1bbaaa80b26d79a3'
p1144
g4
(g5
g6
Ntp1145
Rp1146
(dp1147
g10
Vx
p1148
sg12
V-122.395234
p1149
sg14
Vx
p1150
sg16
g17
(S'\x07\xdc\x05\x0e\x0e\x14\x15\x00\xe4g'
p1151
tp1152
Rp1153
sg21
V37.776289
p1154
sg23
g1144
sbsS'-0x38cf019ade35e7bf'
p1155
g4
(g5
g6
Ntp1156
Rp1157
(dp1158
g10
Vx
p1159
sg12
V-122.395234
p1160
sg14
Vx
p1161
sg16
g17
(S'\x07\xdc\x05\x0e\x15\x049\x0cZ6'
p1162
tp1163
Rp1164
sg21
V37.776289
p1165
sg23
g1155
sbsS'0x548248ef3b40cd7f'
p1166
g4
(g5
g6
Ntp1167
Rp1168
(dp1169
g10
Vx
p1170
sg12
V-122.395234
p1171
sg14
Vx
p1172
sg16
g17
(S'\x07\xdc\x05\x0e\x13\x1c\n\x03}\xc1'
p1173
tp1174
Rp1175
sg21
V37.776289
p1176
sg23
g1166
sbsS'-0x292455af2816f4c0'
p1177
g4
(g5
g6
Ntp1178
Rp1179
(dp1180
g10
Vx
p1181
sg12
V170
p1182
sg14
Vx
p1183
sg16
g17
(S'\x07\xdc\x05\x0e\x10\x1f\x02\x0b\xe5\xb0'
p1184
tp1185
Rp1186
sg21
V80
p1187
sg23
g1177
sbsS'-0x6db9ffd98219673'
p1188
g4
(g5
g6
Ntp1189
Rp1190
(dp1191
g10
Vz
p1192
sg12
V170
p1193
sg14
Vz
p1194
sg16
g17
(S'\x07\xdc\x05\x0e\x0f\t\x06\x0e\x1a4'
p1195
tp1196
Rp1197
sg21
V80
p1198
sg23
g1188
sbsS'0x3a51b7ec917d089f'
p1199
g4
(g5
g6
Ntp1200
Rp1201
(dp1202
g10
Vx
p1203
sg12
V122.395234
p1204
sg14
Vx
p1205
sg16
g17
(S'\x07\xdc\x05\x0e\x14\x01.\x04*_'
p1206
tp1207
Rp1208
sg21
V37.776289
p1209
sg23
g1199
sbsS'0x578789d3636400cd'
p1210
g4
(g5
g6
Ntp1211
Rp1212
(dp1213
g10
Vx
p1214
sg12
V-122.395234
p1215
sg14
Vx
p1216
sg16
g17
(S'\x07\xdc\x05\x0e\x13 \x1f\x06\x93\x86'
p1217
tp1218
Rp1219
sg21
V36
p1220
sg23
g1210
sbsS'0x54df783185863d64'
p1221
g4
(g5
g6
Ntp1222
Rp1223
(dp1224
g10
V02/16/2012
p1225
sg12
V-122.395234
p1226
sg14
V02/16/2012
p1227
sg16
g17
(S'\x07\xdc\x05\x0f\x12\x01\x04\x0e]\xb9'
p1228
tp1229
Rp1230
sg21
V37.776289
p1231
sg23
g1221
sbsS'0x7608046078205d2c'
p1232
g4
(g5
g6
Ntp1233
Rp1234
(dp1235
g10
Vx
p1236
sg12
V-122.395234
p1237
sg14
Vx
p1238
sg16
g17
(S'\x07\xdc\x05\x0e\x14\x04)\x0c}\xe1'
p1239
tp1240
Rp1241
sg21
V37.776289
p1242
sg23
g1232
sbsS'-0x79343f62eb77e06a'
p1243
g4
(g5
g6
Ntp1244
Rp1245
(dp1246
g10
V02/16/2012
p1247
sg12
V-122.395234
p1248
sg14
V02/16/2012
p1249
sg16
g17
(S'\x07\xdc\x05\x0f\x11,"\x0e><'
p1250
tp1251
Rp1252
sg21
V37.776289
p1253
sg23
g1243
sbsS'0x151194bea4286d49'
p1254
g4
(g5
g6
Ntp1255
Rp1256
(dp1257
g10
Vx
p1258
sg12
V-122.395234
p1259
sg14
Vx
p1260
sg16
g17
(S'\x07\xdc\x05\x0e\x17\x04\x0f\x06\xa3\xe3'
p1261
tp1262
Rp1263
sg21
V37.776289
p1264
sg23
g1254
sbsS'-0x2b9ac484e40e3792'
p1265
g4
(g5
g6
Ntp1266
Rp1267
(dp1268
g10
V02/16/2012
p1269
sg12
V-122.395234
p1270
sg14
V02/16/2012
p1271
sg16
g17
(S'\x07\xdc\x05\x0f\x11\x18\x1b\x06}\x12'
p1272
tp1273
Rp1274
sg21
V37.776289
p1275
sg23
g1265
sbsS'-0x759fa9274f927c80'
p1276
g4
(g5
g6
Ntp1277
Rp1278
(dp1279
g10
Vx
p1280
sg12
V180
p1281
sg14
Vx
p1282
sg16
g17
(S'\x07\xdc\x05\x0e\x0f10\x013\x98'
p1283
tp1284
Rp1285
sg21
V80
p1286
sg23
g1276
sbsS'-0x15ceb31a6f45bc74'
p1287
g4
(g5
g6
Ntp1288
Rp1289
(dp1290
g10
Vx
p1291
sg12
V-122.395234
p1292
sg14
Vx
p1293
sg16
g17
(S'\x07\xdc\x05\x0e\x11-0\x03\x9a&'
p1294
tp1295
Rp1296
sg21
V37.776289
p1297
sg23
g1287
sbsS'0x2167b0f363fedd6f'
p1298
g4
(g5
g6
Ntp1299
Rp1300
(dp1301
g10
V02/16/2012
p1302
sg12
V-122.395234
p1303
sg14
V02/16/2012
p1304
sg16
g17
(S'\x07\xdc\x05\x0f\x12&"\x03\x99\x8a'
p1305
tp1306
Rp1307
sg21
V37.776289
p1308
sg23
g1298
sbsS'-0x257301f16610e2da'
p1309
g4
(g5
g6
Ntp1310
Rp1311
(dp1312
g10
V02/16/2012
p1313
sg12
V-122.395234
p1314
sg14
V02/16/2012
p1315
sg16
g17
(S'\x07\xdc\x05\x0f\x11\x01-\nw\x97'
p1316
tp1317
Rp1318
sg21
V37.776289
p1319
sg23
g1309
sbsS'0x18385132304e2987'
p1320
g4
(g5
g6
Ntp1321
Rp1322
(dp1323
g10
Vx
p1324
sg12
V-122.395234
p1325
sg14
Vx
p1326
sg16
g17
(S'\x07\xdc\x05\x0e\x17$\x13\x01&m'
p1327
tp1328
Rp1329
sg21
V37.776289
p1330
sg23
g1320
sbsS'0x8dde51746981f9f'
p1331
g4
(g5
g6
Ntp1332
Rp1333
(dp1334
g10
V02/16/2012
p1335
sg12
V-122.395234
p1336
sg14
V02/16/2012
p1337
sg16
g17
(S'\x07\xdc\x05\x0f\x12/\t\t\x89\x04'
p1338
tp1339
Rp1340
sg21
V37.776289
p1341
sg23
g1331
sbsS'0x1ea3cc93b12c979b'
p1342
g4
(g5
g6
Ntp1343
Rp1344
(dp1345
g10
Vx
p1346
sg12
V-122.395234
p1347
sg14
Vx
p1348
sg16
g17
(S'\x07\xdc\x05\x0e\x14\x1c\x11\n\x198'
p1349
tp1350
Rp1351
sg21
V37.776289
p1352
sg23
g1342
sbsS'0xe7ad522c0e1c785'
p1353
g4
(g5
g6
Ntp1354
Rp1355
(dp1356
g10
V02/16/2012
p1357
sg12
V-73.5550
p1358
sg14
V02/16/2012
p1359
sg16
g17
(S'\x07\xdc\x05\x0f\x13\x06\x04\x06\xdb\xf1'
p1360
tp1361
Rp1362
sg21
V45.5081
p1363
sg23
g1353
sbsS'0x408ef9abe91da0a8'
p1364
g4
(g5
g6
Ntp1365
Rp1366
(dp1367
g10
Vx
p1368
sg12
V-122.395234
p1369
sg14
Vx
p1370
sg16
g17
(S'\x07\xdc\x05\x0e\x15\x06\x15\r\x07\x1b'
p1371
tp1372
Rp1373
sg21
V37.776289
p1374
sg23
g1364
sbsS'0x49248862370c731d'
p1375
g4
(g5
g6
Ntp1376
Rp1377
(dp1378
g10
Vx
p1379
sg12
V-122.395234
p1380
sg14
Vx
p1381
sg16
g17
(S'\x07\xdc\x05\x0e\x0e*\x08\x05]\xd6'
p1382
tp1383
Rp1384
sg21
V37.776289
p1385
sg23
g1375
sbsS'0x4eff021e87735757'
p1386
g4
(g5
g6
Ntp1387
Rp1388
(dp1389
g10
V02/16/2012
p1390
sg12
V-122.395234
p1391
sg14
V02/16/2012
p1392
sg16
g17
(S'\x07\xdc\x05\x0f\x12/\x02\t\xcd\xc1'
p1393
tp1394
Rp1395
sg21
V37.776289
p1396
sg23
g1386
sbsS'0x450dead1496dbeb1'
p1397
g4
(g5
g6
Ntp1398
Rp1399
(dp1400
g10
Vx
p1401
sg12
V-122.395234
p1402
sg14
Vx
p1403
sg16
g17
(S'\x07\xdc\x05\x0e\x133;\x07w\xd9'
p1404
tp1405
Rp1406
sg21
V37.776289
p1407
sg23
g1397
sbsS'0x4b7087d02e70719a'
p1408
g4
(g5
g6
Ntp1409
Rp1410
(dp1411
g10
Vx
p1412
sg12
V-122.395234
p1413
sg14
Vx
p1414
sg16
g17
(S'\x07\xdc\x05\x0e\x11\x11\x18\x05\xbd\x7f'
p1415
tp1416
Rp1417
sg21
V37.776289
p1418
sg23
g1408
sbsS'-0x3e48043739e0e3dd'
p1419
g4
(g5
g6
Ntp1420
Rp1421
(dp1422
g10
Vx
p1423
sg12
V170
p1424
sg14
Vx
p1425
sg16
g17
(S'\x07\xdc\x05\x0e\x10\x0e%\x0c\x92\x9d'
p1426
tp1427
Rp1428
sg21
V80
p1429
sg23
g1419
sbsS'0x27791dc33f300158'
p1430
g4
(g5
g6
Ntp1431
Rp1432
(dp1433
g10
Vx
p1434
sg12
V-122.395234
p1435
sg14
Vx
p1436
sg16
g17
(S'\x07\xdc\x05\x0e\x13\x01\x04\x00\xa8\xe1'
p1437
tp1438
Rp1439
sg21
V37.776289
p1440
sg23
g1430
sbsS'-0x63590ed64e1b6545'
p1441
g4
(g5
g6
Ntp1442
Rp1443
(dp1444
g10
V02/16/2012
p1445
sg12
V-122.395234
p1446
sg14
V02/16/2012
p1447
sg16
g17
(S'\x07\xdc\x05\x0f\x118"\x02\xb3\x96'
p1448
tp1449
Rp1450
sg21
V37.776289
p1451
sg23
g1441
sbsS'0x3a11091352065adb'
p1452
g4
(g5
g6
Ntp1453
Rp1454
(dp1455
g10
Vx
p1456
sg12
V-122.395234
p1457
sg14
Vx
p1458
sg16
g17
(S'\x07\xdc\x05\x0e\x0f0"\x08du'
p1459
tp1460
Rp1461
sg21
V37.776289
p1462
sg23
g1452
sbsS'-0xa98e95287beb25'
p1463
g4
(g5
g6
Ntp1464
Rp1465
(dp1466
g10
Vx
p1467
sg12
V-122.395234
p1468
sg14
Vx
p1469
sg16
g17
(S'\x07\xdc\x05\x0e\x15\r)\rC\xa7'
p1470
tp1471
Rp1472
sg21
V37.776289
p1473
sg23
g1463
sbsS'-0x1d93f3cc9bdfd9cf'
p1474
g4
(g5
g6
Ntp1475
Rp1476
(dp1477
g10
V02/16/2012
p1478
sg12
V-122.395234
p1479
sg14
V02/16/2012
p1480
sg16
g17
(S'\x07\xdc\x05\x0f\x1286\x07\xf3\x94'
p1481
tp1482
Rp1483
sg21
V37.776289
p1484
sg23
g1474
sbsS'-0x46f7200026a1cdab'
p1485
g4
(g5
g6
Ntp1486
Rp1487
(dp1488
g10
Vx
p1489
sg12
V-122.395234
p1490
sg14
Vx
p1491
sg16
g17
(S'\x07\xdc\x05\x0e\x15\x17\x1c\n\xf4\xf2'
p1492
tp1493
Rp1494
sg21
V37.776289
p1495
sg23
g1485
sbsS'-0x7e1c7da420f794a9'
p1496
g4
(g5
g6
Ntp1497
Rp1498
(dp1499
g10
Vx
p1500
sg12
V-122.395234
p1501
sg14
Vx
p1502
sg16
g17
(S'\x07\xdc\x05\x0e\x14\x105\t\xd2\x1e'
p1503
tp1504
Rp1505
sg21
V37.776289
p1506
sg23
g1496
sbsS'-0x3ccbf7cce7f22c74'
p1507
g4
(g5
g6
Ntp1508
Rp1509
(dp1510
g10
Vx
p1511
sg12
V-122.395234
p1512
sg14
Vx
p1513
sg16
g17
(S'\x07\xdc\x05\x0e\x15\x0e\x13\x02\x17\xaa'
p1514
tp1515
Rp1516
sg21
V37.776289
p1517
sg23
g1507
sbsS'-0xebbc465aacc7931'
p1518
g4
(g5
g6
Ntp1519
Rp1520
(dp1521
g10
Vx
p1522
sg12
V-122.395234
p1523
sg14
Vx
p1524
sg16
g17
(S'\x07\xdc\x05\x0e\x13\x1e\x01\x05P\x9b'
p1525
tp1526
Rp1527
sg21
V37.776289
p1528
sg23
g1518
sbsS'-0x2892ddfc69c2ffd4'
p1529
g4
(g5
g6
Ntp1530
Rp1531
(dp1532
g10
Vx
p1533
sg12
V-122.395234
p1534
sg14
Vx
p1535
sg16
g17
(S'\x07\xdc\x05\x0e\x13\x1e\x0f\t:\xe8'
p1536
tp1537
Rp1538
sg21
V80
p1539
sg23
g1529
sbsS'-0x16f656ff98f85a53'
p1540
g4
(g5
g6
Ntp1541
Rp1542
(dp1543
g10
V02/16/2012
p1544
sg12
V-122.395234
p1545
sg14
V02/16/2012
p1546
sg16
g17
(S'\x07\xdc\x05\x0f\x1231\x01L\xa9'
p1547
tp1548
Rp1549
sg21
V37.776289
p1550
sg23
g1540
sbsS'-0x17ccf4eec4770ec1'
p1551
g4
(g5
g6
Ntp1552
Rp1553
(dp1554
g10
V02/16/2012
p1555
sg12
V-122.395234
p1556
sg14
V02/16/2012
p1557
sg16
g17
(S"\x07\xdc\x05\x0f\x11\x02\t\x02\xe1'"
p1558
tp1559
Rp1560
sg21
V37.776289
p1561
sg23
g1551
sbsS'0x23dbf5afef8ca0f'
p1562
g4
(g5
g6
Ntp1563
Rp1564
(dp1565
g10
Vx
p1566
sg12
V-122.395234
p1567
sg14
Vx
p1568
sg16
g17
(S'\x07\xdc\x05\x0e\x14\x02\x1d\rZl'
p1569
tp1570
Rp1571
sg21
V37.776289
p1572
sg23
g1562
sbsS'0x3023e1213bc81947'
p1573
g4
(g5
g6
Ntp1574
Rp1575
(dp1576
g10
V02/16/2012
p1577
sg12
V-122.395234
p1578
sg14
V02/16/2012
p1579
sg16
g17
(S'\x07\xdc\x05\x0f\x13\r!\x07\xae\x86'
p1580
tp1581
Rp1582
sg21
V37.776289
p1583
sg23
g1573
sbsS'-0x6d48a3694fedcb34'
p1584
g4
(g5
g6
Ntp1585
Rp1586
(dp1587
g10
Vx
p1588
sg12
V-122.395234
p1589
sg14
Vx
p1590
sg16
g17
(S'\x07\xdc\x05\x0e\x16\x05\x00\x0bN\x17'
p1591
tp1592
Rp1593
sg21
V37.776289
p1594
sg23
g1584
sbsS'-0x183e3de798c64b09'
p1595
g4
(g5
g6
Ntp1596
Rp1597
(dp1598
g10
V02/16/2012
p1599
sg12
V-122.395234
p1600
sg14
V02/16/2012
p1601
sg16
g17
(S'\x07\xdc\x05\x0f\x12\x01\x15\x06\x8a\xd0'
p1602
tp1603
Rp1604
sg21
V37.776289
p1605
sg23
g1595
sbsS'-0x1d8a2937c6f20feb'
p1606
g4
(g5
g6
Ntp1607
Rp1608
(dp1609
g10
Vx
p1610
sg12
V-122.395234
p1611
sg14
Vx
p1612
sg16
g17
(S'\x07\xdc\x05\x0e\x14\x1a6\ta\xba'
p1613
tp1614
Rp1615
sg21
V37.776289
p1616
sg23
g1606
sbsS'0x18a0ed8d4a1c949f'
p1617
g4
(g5
g6
Ntp1618
Rp1619
(dp1620
g10
V02/16/2012
p1621
sg12
V-122.395234
p1622
sg14
V02/16/2012
p1623
sg16
g17
(S'\x07\xdc\x05\x0f\x11&\r\x07\x83T'
p1624
tp1625
Rp1626
sg21
V37.776289
p1627
sg23
g1617
sbsS'0x18dda8cb097c7f47'
p1628
g4
(g5
g6
Ntp1629
Rp1630
(dp1631
g10
Vz
p1632
sg12
V-122.395234
p1633
sg14
Vz
p1634
sg16
g17
(S'\x07\xdc\x05\x0e\x0f\x02\x0f\t\xac\xf3'
p1635
tp1636
Rp1637
sg21
V37.776289
p1638
sg23
g1628
sbsS'0x2933abe80d5d757e'
p1639
g4
(g5
g6
Ntp1640
Rp1641
(dp1642
g10
Vx
p1643
sg12
V-73.5550
p1644
sg14
Vx
p1645
sg16
g17
(S'\x07\xdc\x05\x0e\x17\x08\r\n\xbb\xad'
p1646
tp1647
Rp1648
sg21
V45.5081
p1649
sg23
g1639
sbsS'0x53548d1bd30d01a0'
p1650
g4
(g5
g6
Ntp1651
Rp1652
(dp1653
g10
Vx
p1654
sg12
V-73.5550
p1655
sg14
Vx
p1656
sg16
g17
(S'\x07\xdc\x05\x0e\x14\x11\x1c\n\x10U'
p1657
tp1658
Rp1659
sg21
V45.5081
p1660
sg23
g1650
sbsS'0x38a3a03e4d201e60'
p1661
g4
(g5
g6
Ntp1662
Rp1663
(dp1664
g10
Vx
p1665
sg12
V-122.395234
p1666
sg14
Vx
p1667
sg16
g17
(S'\x07\xdc\x05\x0e\x15\x15*\x04$i'
p1668
tp1669
Rp1670
sg21
V37.776289
p1671
sg23
g1661
sbsS'0x3ec8f7c30240c74d'
p1672
g4
(g5
g6
Ntp1673
Rp1674
(dp1675
g10
Vx
p1676
sg12
V-122.395234
p1677
sg14
Vx
p1678
sg16
g17
(S'\x07\xdc\x05\x0e\x17\x03\x1e\x06P\xc2'
p1679
tp1680
Rp1681
sg21
V37.776289
p1682
sg23
g1672
sbsS'-0x574d1d662aa89bf0'
p1683
g4
(g5
g6
Ntp1684
Rp1685
(dp1686
g10
Vx
p1687
sg12
V170
p1688
sg14
Vx
p1689
sg16
g17
(S'\x07\xdc\x05\x0e\x10\x10\x18\x0b\x0eh'
p1690
tp1691
Rp1692
sg21
V80
p1693
sg23
g1683
sbsS'0x68d8dc59397a433b'
p1694
g4
(g5
g6
Ntp1695
Rp1696
(dp1697
g10
Vx
p1698
sg12
V-73.5550
p1699
sg14
Vx
p1700
sg16
g17
(S'\x07\xdc\x05\x0e\x17\x1d\t\x05\xa6\x01'
p1701
tp1702
Rp1703
sg21
V45.5081
p1704
sg23
g1694
sbsS'-0x54e8b0b593202dcf'
p1705
g4
(g5
g6
Ntp1706
Rp1707
(dp1708
g10
Vx
p1709
sg12
V-122.395234
p1710
sg14
Vx
p1711
sg16
g17
(S'\x07\xdc\x05\x0e\x1388\x0c\x10\xd9'
p1712
tp1713
Rp1714
sg21
V37.776289
p1715
sg23
g1705
sbsS'-0x6e0309b142664a82'
p1716
g4
(g5
g6
Ntp1717
Rp1718
(dp1719
g10
V02/16/2012
p1720
sg12
V-122.395234
p1721
sg14
V02/16/2012
p1722
sg16
g17
(S'\x07\xdc\x05\x0f\x11\x04,\x03\xd01'
p1723
tp1724
Rp1725
sg21
V37.776289
p1726
sg23
g1716
sbsS'-0x498c9ad035ac4177'
p1727
g4
(g5
g6
Ntp1728
Rp1729
(dp1730
g10
Vx
p1731
sg12
V180
p1732
sg14
Vx
p1733
sg16
g17
(S'\x07\xdc\x05\x0e\x0e\x17\x00\x01x\xb1'
p1734
tp1735
Rp1736
sg21
V80
p1737
sg23
g1727
sbsS'0x3e07386c0a67b0e'
p1738
g4
(g5
g6
Ntp1739
Rp1740
(dp1741
g10
Vx
p1742
sg12
V-122.395234
p1743
sg14
Vx
p1744
sg16
g17
(S'\x07\xdc\x05\x0e\x17\x03\x1e\x07\x1b\x95'
p1745
tp1746
Rp1747
sg21
V37.776289
p1748
sg23
g1738
sbsS'0x9a5c4ab96ec776'
p1749
g4
(g5
g6
Ntp1750
Rp1751
(dp1752
g10
V02/16/2012
p1753
sg12
V-122.395234
p1754
sg14
V02/16/2012
p1755
sg16
g17
(S'\x07\xdc\x05\x0f\x11\x072\x04\x872'
p1756
tp1757
Rp1758
sg21
V37.776289
p1759
sg23
g1749
sbsS'-0x68bcb788be2921bb'
p1760
g4
(g5
g6
Ntp1761
Rp1762
(dp1763
g10
V02/16/2012
p1764
sg12
V-122.395234
p1765
sg14
V02/16/2012
p1766
sg16
g17
(S'\x07\xdc\x05\x0f\x12\x12\x16\x0c\x0b!'
p1767
tp1768
Rp1769
sg21
V37.776289
p1770
sg23
g1760
sbsS'-0x1bc55828a4090cac'
p1771
g4
(g5
g6
Ntp1772
Rp1773
(dp1774
g10
Vx
p1775
sg12
V-122.395234
p1776
sg14
Vx
p1777
sg16
g17
(S'\x07\xdc\x05\x0e\x0e.\x07\x07t\xe3'
p1778
tp1779
Rp1780
sg21
V37.776289
p1781
sg23
g1771
sbsS'-0x6f6fbdbf15d0195b'
p1782
g4
(g5
g6
Ntp1783
Rp1784
(dp1785
g10
Vx
p1786
sg12
V122.395234
p1787
sg14
Vx
p1788
sg16
g17
(S'\x07\xdc\x05\x0e\x13:\x08\x0cn\x89'
p1789
tp1790
Rp1791
sg21
V37.776289
p1792
sg23
g1782
sbsS'0x1134400b322c17d7'
p1793
g4
(g5
g6
Ntp1794
Rp1795
(dp1796
g10
V02/16/2012
p1797
sg12
V-122.395234
p1798
sg14
V02/16/2012
p1799
sg16
g17
(S'\x07\xdc\x05\x0f\x11(\x0b\x05\x9f\xa2'
p1800
tp1801
Rp1802
sg21
V37.776289
p1803
sg23
g1793
sbsS'0x5ca3d2bc19c03055'
p1804
g4
(g5
g6
Ntp1805
Rp1806
(dp1807
g10
Vx
p1808
sg12
V-122.395234
p1809
sg14
Vx
p1810
sg16
g17
(S'\x07\xdc\x05\x0e\x11/\x07\x0c(\x15'
p1811
tp1812
Rp1813
sg21
V37.776289
p1814
sg23
g1804
sbsS'0x734d3991fbed8ec'
p1815
g4
(g5
g6
Ntp1816
Rp1817
(dp1818
g10
Vx
p1819
sg12
V-122.395234
p1820
sg14
Vx
p1821
sg16
g17
(S'\x07\xdc\x05\x0e\x13#\x1d\x07\x8f?'
p1822
tp1823
Rp1824
sg21
V36
p1825
sg23
g1815
sbsS'0x56585b86b245948c'
p1826
g4
(g5
g6
Ntp1827
Rp1828
(dp1829
g10
V02/16/2012
p1830
sg12
V-122.395234
p1831
sg14
V02/16/2012
p1832
sg16
g17
(S'\x07\xdc\x05\x0f\x11\x16\r\x0b\x1cn'
p1833
tp1834
Rp1835
sg21
V37.776289
p1836
sg23
g1826
sbsS'-0xb423618ef51ec6c'
p1837
g4
(g5
g6
Ntp1838
Rp1839
(dp1840
g10
Vx
p1841
sg12
V-122.395234
p1842
sg14
Vx
p1843
sg16
g17
(S'\x07\xdc\x05\x0e\x11\x11/\r\\\xdb'
p1844
tp1845
Rp1846
sg21
V37.776289
p1847
sg23
g1837
sbsS'0x6fea883490ad5a97'
p1848
g4
(g5
g6
Ntp1849
Rp1850
(dp1851
g10
Vx
p1852
sg12
V-122.395234
p1853
sg14
Vx
p1854
sg16
g17
(S'\x07\xdc\x05\x0e\x11\x14\x1d\x07\x1c\x01'
p1855
tp1856
Rp1857
sg21
V37.776289
p1858
sg23
g1848
sbsS'-0x503cc3ae7e48ce0f'
p1859
g4
(g5
g6
Ntp1860
Rp1861
(dp1862
g10
Vx
p1863
sg12
V-73.5550
p1864
sg14
Vx
p1865
sg16
g17
(S'\x07\xdc\x05\x0e\x17\x10$\x05\xb3R'
p1866
tp1867
Rp1868
sg21
V45.5081
p1869
sg23
g1859
sbsS'-0x51967569e6125e0c'
p1870
g4
(g5
g6
Ntp1871
Rp1872
(dp1873
g10
Vx
p1874
sg12
V-122.395234
p1875
sg14
Vx
p1876
sg16
g17
(S'\x07\xdc\x05\x0e\x15\x19.\n@\xdf'
p1877
tp1878
Rp1879
sg21
V37.776289
p1880
sg23
g1870
sbsS'-0x3cf7854cb5f922d0'
p1881
g4
(g5
g6
Ntp1882
Rp1883
(dp1884
g10
Vx
p1885
sg12
V-122.395234
p1886
sg14
Vx
p1887
sg16
g17
(S'\x07\xdc\x05\x0e\x11\x15\x01\x05r7'
p1888
tp1889
Rp1890
sg21
V37.776289
p1891
sg23
g1881
sbsS'0x1fb8faf54ba7c3d3'
p1892
g4
(g5
g6
Ntp1893
Rp1894
(dp1895
g10
V02/16/2012
p1896
sg12
V-122.395234
p1897
sg14
V02/16/2012
p1898
sg16
g17
(S'\x07\xdc\x05\x0f\x12\x050\x02[\xf4'
p1899
tp1900
Rp1901
sg21
V37.776289
p1902
sg23
g1892
sbsS'0x253094c1ee19ee3b'
p1903
g4
(g5
g6
Ntp1904
Rp1905
(dp1906
g10
V02/16/2012
p1907
sg12
V-122.395234
p1908
sg14
V02/16/2012
p1909
sg16
g17
(S'\x07\xdc\x05\x0f\x11\x183\x0b\x93\xb0'
p1910
tp1911
Rp1912
sg21
V37.776289
p1913
sg23
g1903
sbsS'0x5296c45d600a594'
p1914
g4
(g5
g6
Ntp1915
Rp1916
(dp1917
g10
Vx
p1918
sg12
V-122.395234
p1919
sg14
Vx
p1920
sg16
g17
(S'\x07\xdc\x05\x0e\x13#\x18\x07\x10\x15'
p1921
tp1922
Rp1923
sg21
V36
p1924
sg23
g1914
sbsS'0x24dd6dfbb254c139'
p1925
g4
(g5
g6
Ntp1926
Rp1927
(dp1928
g10
Vx
p1929
sg12
V-122.395234
p1930
sg14
Vx
p1931
sg16
g17
(S'\x07\xdc\x05\x0e\x15\x02\x10\x01\x0f='
p1932
tp1933
Rp1934
sg21
V37.776289
p1935
sg23
g1925
sbsS'-0x736964ec0e2f41d5'
p1936
g4
(g5
g6
Ntp1937
Rp1938
(dp1939
g10
Vx
p1940
sg12
V-122.395234
p1941
sg14
Vx
p1942
sg16
g17
(S'\x07\xdc\x05\x0e\x16\x10,\r\xdc\xa1'
p1943
tp1944
Rp1945
sg21
V37.776289
p1946
sg23
g1936
sbsS'-0x7e4b72cc19a865a8'
p1947
g4
(g5
g6
Ntp1948
Rp1949
(dp1950
g10
Vx
p1951
sg12
V122.395234
p1952
sg14
Vx
p1953
sg16
g17
(S'\x07\xdc\x05\x0e\x14\x02\x19\x05d\xa5'
p1954
tp1955
Rp1956
sg21
V37.776289
p1957
sg23
g1947
sbsS'0x35414a6bc473cf20'
p1958
g4
(g5
g6
Ntp1959
Rp1960
(dp1961
g10
Vx
p1962
sg12
V-122.395234
p1963
sg14
Vx
p1964
sg16
g17
(S'\x07\xdc\x05\x0e\x1629\x06\x8f\x85'
p1965
tp1966
Rp1967
sg21
V37.776289
p1968
sg23
g1958
sbsS'0x5d026a6a1c08e51e'
p1969
g4
(g5
g6
Ntp1970
Rp1971
(dp1972
g10
Vx
p1973
sg12
V-122.395234
p1974
sg14
Vx
p1975
sg16
g17
(S'\x07\xdc\x05\x0e\x13"\x06\x05\x85\xfd'
p1976
tp1977
Rp1978
sg21
V36
p1979
sg23
g1969
sbsS'-0x6d0e142305b4c9f6'
p1980
g4
(g5
g6
Ntp1981
Rp1982
(dp1983
g10
Vz
p1984
sg12
V170
p1985
sg14
Vz
p1986
sg16
g17
(S'\x07\xdc\x05\x0e\x0f\x03\x06\x03\xc2\xa0'
p1987
tp1988
Rp1989
sg21
V80
p1990
sg23
g1980
sbsS'-0x567490557928b5ab'
p1991
g4
(g5
g6
Ntp1992
Rp1993
(dp1994
g10
V02/16/2012
p1995
sg12
V-122.395234
p1996
sg14
V02/16/2012
p1997
sg16
g17
(S'\x07\xdc\x05\x0f\x12\x10-\x01r\x10'
p1998
tp1999
Rp2000
sg21
V37.776289
p2001
sg23
g1991
sbsS'0x42cf89f2384c46a3'
p2002
g4
(g5
g6
Ntp2003
Rp2004
(dp2005
g10
Vx
p2006
sg12
V-122.395234
p2007
sg14
Vx
p2008
sg16
g17
(S'\x07\xdc\x05\x0e\x1306\x0eM\xf4'
p2009
tp2010
Rp2011
sg21
V37.776289
p2012
sg23
g2002
sbsS'0x3f6b804db5d058bc'
p2013
g4
(g5
g6
Ntp2014
Rp2015
(dp2016
g10
Vz
p2017
sg12
V90
p2018
sg14
Vz
p2019
sg16
g17
(S'\x07\xdc\x05\x0e\x0e9\x18\x0c\xd0b'
p2020
tp2021
Rp2022
sg21
V80
p2023
sg23
g2013
sbsS'-0x840d0abdd1d8297'
p2024
g4
(g5
g6
Ntp2025
Rp2026
(dp2027
g10
V02/16/2012
p2028
sg12
V-122.395234
p2029
sg14
V02/16/2012
p2030
sg16
g17
(S"\x07\xdc\x05\x0f\x12\x06'\x0c\x96\xcd"
p2031
tp2032
Rp2033
sg21
V37.776289
p2034
sg23
g2024
sbsS'0x3efd31565ad932f4'
p2035
g4
(g5
g6
Ntp2036
Rp2037
(dp2038
g10
Vx
p2039
sg12
V-122.395234
p2040
sg14
Vx
p2041
sg16
g17
(S'\x07\xdc\x05\x0e\x14!\x18\x05\xe8\xe9'
p2042
tp2043
Rp2044
sg21
V37.776289
p2045
sg23
g2035
sbsS'-0x41b95f9a8abc72b0'
p2046
g4
(g5
g6
Ntp2047
Rp2048
(dp2049
g10
Vx
p2050
sg12
V-122.395234
p2051
sg14
Vx
p2052
sg16
g17
(S"\x07\xdc\x05\x0e\x0e',\x07\r\xc8"
p2053
tp2054
Rp2055
sg21
V37.776289
p2056
sg23
g2046
sbsS'0x2d3d09ef1bc55645'
p2057
g4
(g5
g6
Ntp2058
Rp2059
(dp2060
g10
Vx
p2061
sg12
V-122.395234
p2062
sg14
Vx
p2063
sg16
g17
(S'\x07\xdc\x05\x0e\x13!!\x03N\x0b'
p2064
tp2065
Rp2066
sg21
V36
p2067
sg23
g2057
sbsS'0x20db21c8bce0908c'
p2068
g4
(g5
g6
Ntp2069
Rp2070
(dp2071
g10
V02/16/2012
p2072
sg12
V-122.395234
p2073
sg14
V02/16/2012
p2074
sg16
g17
(S'\x07\xdc\x05\x0f\x129;\x020\xe3'
p2075
tp2076
Rp2077
sg21
V37.776289
p2078
sg23
g2068
sbsS'-0x2eb63d1cf537c6f'
p2079
g4
(g5
g6
Ntp2080
Rp2081
(dp2082
g10
Vx
p2083
sg12
V170
p2084
sg14
Vx
p2085
sg16
g17
(S'\x07\xdc\x05\x0e\x10\x1f\x08\x0cd#'
p2086
tp2087
Rp2088
sg21
V80
p2089
sg23
g2079
sbsS'0x7220a11bb845ff15'
p2090
g4
(g5
g6
Ntp2091
Rp2092
(dp2093
g10
V02/16/2012
p2094
sg12
Nsg14
V02/16/2012
p2095
sg16
g17
(S'\x07\xdc\x05\x0f\x138\x02\x08\x113'
p2096
tp2097
Rp2098
sg21
Nsg23
g2090
sbsS'-0x72bf4357390300fe'
p2099
g4
(g5
g6
Ntp2100
Rp2101
(dp2102
g10
V02/16/2012
p2103
sg12
V170
p2104
sg14
V02/16/2012
p2105
sg16
g17
(S'\x07\xdc\x05\x0f\x139\x0e\x03\xaa\x12'
p2106
tp2107
Rp2108
sg21
V80
p2109
sg23
g2099
sbsS'-0x529130a61fabf63c'
p2110
g4
(g5
g6
Ntp2111
Rp2112
(dp2113
g10
Vx
p2114
sg12
V-122.395234
p2115
sg14
Vx
p2116
sg16
g17
(S"\x07\xdc\x05\x0e\x11'5\n\x8c\xf4"
p2117
tp2118
Rp2119
sg21
V37.776289
p2120
sg23
g2110
sbsS'0x6913b1e4f75689d1'
p2121
g4
(g5
g6
Ntp2122
Rp2123
(dp2124
g10
Vx
p2125
sg12
V-73.5550
p2126
sg14
Vx
p2127
sg16
g17
(S'\x07\xdc\x05\x0e\x17#\x0f\x06\xa5\x1d'
p2128
tp2129
Rp2130
sg21
V45.5081
p2131
sg23
g2121
sbsS'0x7ec9bfd31b564c4c'
p2132
g4
(g5
g6
Ntp2133
Rp2134
(dp2135
g10
Vx
p2136
sg12
V-122.395234
p2137
sg14
Vx
p2138
sg16
g17
(S'\x07\xdc\x05\x0e\x0f1\x15\x00\xba\x08'
p2139
tp2140
Rp2141
sg21
V37.776289
p2142
sg23
g2132
sbsS'0x100747128893ac26'
p2143
g4
(g5
g6
Ntp2144
Rp2145
(dp2146
g10
Vx
p2147
sg12
V-73.5550
p2148
sg14
Vx
p2149
sg16
g17
(S'\x07\xdc\x05\x0e\x17\x10"\x02\xec\x01'
p2150
tp2151
Rp2152
sg21
V45.5081
p2153
sg23
g2143
sbsS'-0x24074c0795801b82'
p2154
g4
(g5
g6
Ntp2155
Rp2156
(dp2157
g10
Vx
p2158
sg12
V-122.395234
p2159
sg14
Vx
p2160
sg16
g17
(S'\x07\xdc\x05\x0e\x0e+*\x07M\x10'
p2161
tp2162
Rp2163
sg21
V37.776289
p2164
sg23
g2154
sbsS'0x61deb7a828c4069e'
p2165
g4
(g5
g6
Ntp2166
Rp2167
(dp2168
g10
V02/16/2012
p2169
sg12
V-122.395234
p2170
sg14
V02/16/2012
p2171
sg16
g17
(S'\x07\xdc\x05\x0f\x11\x144\r\x1cc'
p2172
tp2173
Rp2174
sg21
V37.776289
p2175
sg23
g2165
sbsS'-0x29474c2b38d9a660'
p2176
g4
(g5
g6
Ntp2177
Rp2178
(dp2179
g10
V02/16/2012
p2180
sg12
V-122.395234
p2181
sg14
V02/16/2012
p2182
sg16
g17
(S'\x07\xdc\x05\x0f\x11)\x17\x0b\xa5\x08'
p2183
tp2184
Rp2185
sg21
V80
p2186
sg23
g2176
sbsS'-0x1bf93a2920f29fe1'
p2187
g4
(g5
g6
Ntp2188
Rp2189
(dp2190
g10
Vx
p2191
sg12
V-122.395234
p2192
sg14
Vx
p2193
sg16
g17
(S'\x07\xdc\x05\x0e\x0e5\t\x05\x97\xc6'
p2194
tp2195
Rp2196
sg21
V37.776289
p2197
sg23
g2187
sbsS'-0x33ce6e6b5f576255'
p2198
g4
(g5
g6
Ntp2199
Rp2200
(dp2201
g10
Vx
p2202
sg12
V-122.395234
p2203
sg14
Vx
p2204
sg16
g17
(S'\x07\xdc\x05\x0e\x15\x1e\x0c\x01\xe82'
p2205
tp2206
Rp2207
sg21
V37.776289
p2208
sg23
g2198
sbsS'-0x4f1779b7d894e15f'
p2209
g4
(g5
g6
Ntp2210
Rp2211
(dp2212
g10
Vx
p2213
sg12
V-122.395234
p2214
sg14
Vx
p2215
sg16
g17
(S'\x07\xdc\x05\x0e\x14;\n\x0e\x7f\xa6'
p2216
tp2217
Rp2218
sg21
V37.776289
p2219
sg23
g2209
sbsS'0xb72e758117019e7'
p2220
g4
(g5
g6
Ntp2221
Rp2222
(dp2223
g10
Vx
p2224
sg12
V-122.395234
p2225
sg14
Vx
p2226
sg16
g17
(S'\x07\xdc\x05\x0e\x0e\x15\x10\x06E\x80'
p2227
tp2228
Rp2229
sg21
V37.776289
p2230
sg23
g2220
sbsS'0x67e1c7e9a7b5009c'
p2231
g4
(g5
g6
Ntp2232
Rp2233
(dp2234
g10
Vx
p2235
sg12
V-122.395234
p2236
sg14
Vx
p2237
sg16
g17
(S'\x07\xdc\x05\x0e\x0e3\x03\x07\x13\x9b'
p2238
tp2239
Rp2240
sg21
V37.776289
p2241
sg23
g2231
sbsS'0x59547cc1ab7810b4'
p2242
g4
(g5
g6
Ntp2243
Rp2244
(dp2245
g10
Vz
p2246
sg12
V170
p2247
sg14
Vz
p2248
sg16
g17
(S'\x07\xdc\x05\x0e\x0f\x06;\x0b\xf0n'
p2249
tp2250
Rp2251
sg21
V80
p2252
sg23
g2242
sbsS'0x6f7dacef4f091af8'
p2253
g4
(g5
g6
Ntp2254
Rp2255
(dp2256
g10
Vx
p2257
sg12
V122.395234
p2258
sg14
Vx
p2259
sg16
g17
(S'\x07\xdc\x05\x0e\x14\x06\x00\t\xa60'
p2260
tp2261
Rp2262
sg21
V37.776289
p2263
sg23
g2253
sbsS'0x684678d34e1a7c1'
p2264
g4
(g5
g6
Ntp2265
Rp2266
(dp2267
g10
V02/16/2012
p2268
sg12
V-122.395234
p2269
sg14
V02/16/2012
p2270
sg16
g17
(S'\x07\xdc\x05\x0f\x11\x0e\x01\r\xa6\xcf'
p2271
tp2272
Rp2273
sg21
V37.776289
p2274
sg23
g2264
sbsS'0x201d331e1d110513'
p2275
g4
(g5
g6
Ntp2276
Rp2277
(dp2278
g10
Vx
p2279
sg12
V-122.395234
p2280
sg14
Vx
p2281
sg16
g17
(S'\x07\xdc\x05\x0e\x13.,\t\x0c '
p2282
tp2283
Rp2284
sg21
V37.776289
p2285
sg23
g2275
sbsS'0x2609a0237d3a0afd'
p2286
g4
(g5
g6
Ntp2287
Rp2288
(dp2289
g10
Vx
p2290
sg12
V-122.395234
p2291
sg14
Vx
p2292
sg16
g17
(S'\x07\xdc\x05\x0e\x14!&\t\xd1-'
p2293
tp2294
Rp2295
sg21
V37.776289
p2296
sg23
g2286
sbsS'0x7bf9c9b7183c2fec'
p2297
g4
(g5
g6
Ntp2298
Rp2299
(dp2300
g10
Vx
p2301
sg12
V-122.395234
p2302
sg14
Vx
p2303
sg16
g17
(S'\x07\xdc\x05\x0e\x13#\t\x01\xfc\x08'
p2304
tp2305
Rp2306
sg21
V36
p2307
sg23
g2297
sbsS'-0x1c21abc1e1d41f62'
p2308
g4
(g5
g6
Ntp2309
Rp2310
(dp2311
g10
Vx
p2312
sg12
V-122.395234
p2313
sg14
Vx
p2314
sg16
g17
(S'\x07\xdc\x05\x0e\x14\x02,\n\xe2\xd5'
p2315
tp2316
Rp2317
sg21
V37.776289
p2318
sg23
g2308
sbsS'-0x66b28b6f4e9e447'
p2319
g4
(g5
g6
Ntp2320
Rp2321
(dp2322
g10
Vx
p2323
sg12
V-122.395234
p2324
sg14
Vx
p2325
sg16
g17
(S'\x07\xdc\x05\x0e\x11*!\x0c8f'
p2326
tp2327
Rp2328
sg21
V37.776289
p2329
sg23
g2319
sbsS'0x6140df639cbfa77a'
p2330
g4
(g5
g6
Ntp2331
Rp2332
(dp2333
g10
Vz
p2334
sg12
V170
p2335
sg14
Vz
p2336
sg16
g17
(S'\x07\xdc\x05\x0e\x0f\x08\n\x06\xff\xe1'
p2337
tp2338
Rp2339
sg21
V80
p2340
sg23
g2330
sbsS'-0x7c1a4958d8476c32'
p2341
g4
(g5
g6
Ntp2342
Rp2343
(dp2344
g10
Vx
p2345
sg12
V-122.395234
p2346
sg14
Vx
p2347
sg16
g17
(S'\x07\xdc\x05\x0e\x1483\x03+\xd8'
p2348
tp2349
Rp2350
sg21
V37.776289
p2351
sg23
g2341
sbsS'0x3a83e899915cde7a'
p2352
g4
(g5
g6
Ntp2353
Rp2354
(dp2355
g10
Vx
p2356
sg12
V-122.395234
p2357
sg14
Vx
p2358
sg16
g17
(S'\x07\xdc\x05\x0e\x15\x04)\x08\xdc\xcb'
p2359
tp2360
Rp2361
sg21
V37.776289
p2362
sg23
g2352
sbsS'0x3be0610e4bebdeb8'
p2363
g4
(g5
g6
Ntp2364
Rp2365
(dp2366
g10
Vz
p2367
sg12
V-122.395234
p2368
sg14
Vz
p2369
sg16
g17
(S'\x07\xdc\x05\x0e\x0f\x02\x08\x05\xd2\xfb'
p2370
tp2371
Rp2372
sg21
V37.776289
p2373
sg23
g2363
sbsS'0xfd3caeda99c0772'
p2374
g4
(g5
g6
Ntp2375
Rp2376
(dp2377
g10
Vx
p2378
sg12
V-122.395234
p2379
sg14
Vx
p2380
sg16
g17
(S'\x07\xdc\x05\x0e\x133\x1b\rb\xcb'
p2381
tp2382
Rp2383
sg21
V37.776289
p2384
sg23
g2374
sbsS'-0x2ab04e2a088d21c5'
p2385
g4
(g5
g6
Ntp2386
Rp2387
(dp2388
g10
V02/16/2012
p2389
sg12
Nsg14
V02/16/2012
p2390
sg16
g17
(S"\x07\xdc\x05\x0f\x13\x0b'\n\xcbm"
p2391
tp2392
Rp2393
sg21
Nsg23
g2385
sbsS'-0x5299dc71bc364176'
p2394
g4
(g5
g6
Ntp2395
Rp2396
(dp2397
g10
Vx
p2398
sg12
V-122.395234
p2399
sg14
Vx
p2400
sg16
g17
(S'\x07\xdc\x05\x0e\x13\x19\x1d\x08,\x9c'
p2401
tp2402
Rp2403
sg21
V37.776289
p2404
sg23
g2394
sbsS'-0x3b01395f496b260'
p2405
g4
(g5
g6
Ntp2406
Rp2407
(dp2408
g10
V02/16/2012
p2409
sg12
V-122.395234
p2410
sg14
V02/16/2012
p2411
sg16
g17
(S'\x07\xdc\x05\x0f\x12\x02\x06\n$K'
p2412
tp2413
Rp2414
sg21
V37.776289
p2415
sg23
g2405
sbsS'0x3eb2f2c7c431fef6'
p2416
g4
(g5
g6
Ntp2417
Rp2418
(dp2419
g10
Vx
p2420
sg12
V-122.395234
p2421
sg14
Vx
p2422
sg16
g17
(S'\x07\xdc\x05\x0e\x15\x19;\t\xdao'
p2423
tp2424
Rp2425
sg21
V37.776289
p2426
sg23
g2416
sbsS'-0x4af02662b39f8ca'
p2427
g4
(g5
g6
Ntp2428
Rp2429
(dp2430
g10
Vx
p2431
sg12
V-122.395234
p2432
sg14
Vx
p2433
sg16
g17
(S'\x07\xdc\x05\x0e\x16)\x03\x03\xf5='
p2434
tp2435
Rp2436
sg21
V37.776289
p2437
sg23
g2427
sbsS'0x1d62bcf654e34803'
p2438
g4
(g5
g6
Ntp2439
Rp2440
(dp2441
g10
Vx
p2442
sg12
V122.395234
p2443
sg14
Vx
p2444
sg16
g17
(S'\x07\xdc\x05\x0e\x13:\x04\x06\xed\xbc'
p2445
tp2446
Rp2447
sg21
V37.776289
p2448
sg23
g2438
sbsS'-0x6778553edb8b0ce9'
p2449
g4
(g5
g6
Ntp2450
Rp2451
(dp2452
g10
Vx
p2453
sg12
V-122.395234
p2454
sg14
Vx
p2455
sg16
g17
(S'\x07\xdc\x05\x0e\x13 \x00\x00vE'
p2456
tp2457
Rp2458
sg21
V40
p2459
sg23
g2449
sbsS'0x78f7b21fc8660b3d'
p2460
g4
(g5
g6
Ntp2461
Rp2462
(dp2463
g10
V02/16/2012
p2464
sg12
V-122.395234
p2465
sg14
V02/16/2012
p2466
sg16
g17
(S'\x07\xdc\x05\x0f\x12\x06\x07\x078\xe8'
p2467
tp2468
Rp2469
sg21
V37.776289
p2470
sg23
g2460
sbsS'0x8c410aff2656905'
p2471
g4
(g5
g6
Ntp2472
Rp2473
(dp2474
g10
Vx
p2475
sg12
V-122.395234
p2476
sg14
Vx
p2477
sg16
g17
(S'\x07\xdc\x05\x0e\x1363\x07W\xe8'
p2478
tp2479
Rp2480
sg21
V37.776289
p2481
sg23
g2471
sbsS'-0x7b7c6d9b1c3bfe69'
p2482
g4
(g5
g6
Ntp2483
Rp2484
(dp2485
g10
V02/16/2012
p2486
sg12
V-122.395234
p2487
sg14
V02/16/2012
p2488
sg16
g17
(S'\x07\xdc\x05\x0f\x121$\x00\xf7\xaa'
p2489
tp2490
Rp2491
sg21
V37.776289
p2492
sg23
g2482
sbssS'response'
p2493
(dp2494
S'pwstations'
p2495
(lp2496
g4
(cmodel
PersonalStation
p2497
g6
Ntp2498
Rp2499
(dp2500
S'distance'
p2501
I0
sS'stationid'
p2502
VKCASANFR53
p2503
sbag4
(g2497
g6
Ntp2504
Rp2505
(dp2506
g2501
I1
sg2502
VKCASANFR108
p2507
sbag4
(g2497
g6
Ntp2508
Rp2509
(dp2510
g2501
I0
sg2502
VKCASANFR14
p2511
sbag4
(g2497
g6
Ntp2512
Rp2513
(dp2514
g2501
I0
sg2502
VKCASANFR113
p2515
sbag4
(g2497
g6
Ntp2516
Rp2517
(dp2518
g2501
I1
sg2502
VKCASANFR131
p2519
sbag4
(g2497
g6
Ntp2520
Rp2521
(dp2522
g2501
I2
sg2502
VKCASANFR58
p2523
sbag4
(g2497
g6
Ntp2524
Rp2525
(dp2526
g2501
I2
sg2502
VKCASANFR79
p2527
sbag4
(g2497
g6
Ntp2528
Rp2529
(dp2530
g2501
I1
sg2502
VKCASANFR102
p2531
sbag4
(g2497
g6
Ntp2532
Rp2533
(dp2534
g2501
I4
sg2502
VMCQ147
p2535
sbag4
(g2497
g6
Ntp2536
Rp2537
(dp2538
g2501
I3
sg2502
VKPCASANF2
p2539
sbag4
(g2497
g6
Ntp2540
Rp2541
(dp2542
g2501
I3
sg2502
VKCASANFR114
p2543
sbag4
(g2497
g6
Ntp2544
Rp2545
(dp2546
g2501
I3
sg2502
VMSFOC1
p2547
sbag4
(g2497
g6
Ntp2548
Rp2549
(dp2550
g2501
I2
sg2502
VKCASANFR137
p2551
sbag4
(g2497
g6
Ntp2552
Rp2553
(dp2554
g2501
I4
sg2502
VKCASANFR3
p2555
sbag4
(g2497
g6
Ntp2556
Rp2557
(dp2558
g2501
I4
sg2502
VKCASANFR86
p2559
sbag4
(g2497
g6
Ntp2560
Rp2561
(dp2562
g2501
I4
sg2502
VKCASANFR98
p2563
sbag4
(g2497
g6
Ntp2564
Rp2565
(dp2566
g2501
I5
sg2502
VKCASANFR73
p2567
sbag4
(g2497
g6
Ntp2568
Rp2569
(dp2570
g2501
I4
sg2502
VKCASANFR76
p2571
sbag4
(g2497
g6
Ntp2572
Rp2573
(dp2574
g2501
I5
sg2502
VKCASANFR135
p2575
sbag4
(g2497
g6
Ntp2576
Rp2577
(dp2578
g2501
I5
sg2502
VKCASANFR110
p2579
sbag4
(g2497
g6
Ntp2580
Rp2581
(dp2582
g2501
I6
sg2502
VMC9629
p2583
sbag4
(g2497
g6
Ntp2584
Rp2585
(dp2586
g2501
I5
sg2502
VKCASANFR34
p2587
sbag4
(g2497
g6
Ntp2588
Rp2589
(dp2590
g2501
I6
sg2502
VKCASANFR70
p2591
sbag4
(g2497
g6
Ntp2592
Rp2593
(dp2594
g2501
I5
sg2502
VKCASANFR82
p2595
sbag4
(g2497
g6
Ntp2596
Rp2597
(dp2598
g2501
I6
sg2502
VKCASANFR133
p2599
sbag4
(g2497
g6
Ntp2600
Rp2601
(dp2602
g2501
I6
sg2502
VKCASANFR46
p2603
sbag4
(g2497
g6
Ntp2604
Rp2605
(dp2606
g2501
I6
sg2502
VKCASANFR72
p2607
sbag4
(g2497
g6
Ntp2608
Rp2609
(dp2610
g2501
I7
sg2502
VKCASANFR130
p2611
sbag4
(g2497
g6
Ntp2612
Rp2613
(dp2614
g2501
I7
sg2502
VKCASANFR109
p2615
sbag4
(g2497
g6
Ntp2616
Rp2617
(dp2618
g2501
I6
sg2502
VKCASANFR128
p2619
sbag4
(g2497
g6
Ntp2620
Rp2621
(dp2622
g2501
I8
sg2502
VKCAALAME6
p2623
sbag4
(g2497
g6
Ntp2624
Rp2625
(dp2626
g2501
I8
sg2502
VMD8533
p2627
sbag4
(g2497
g6
Ntp2628
Rp2629
(dp2630
g2501
I10
sg2502
VKCASANFR100
p2631
sbag4
(g2497
g6
Ntp2632
Rp2633
(dp2634
g2501
I10
sg2502
VMAS891
p2635
sbasS'airports'
p2636
(lp2637
g4
(cmodel
AirportStation
p2638
g6
Ntp2639
Rp2640
(dp2641
S'icao'
p2642
VKOAK
p2643
sS'city'
p2644
VOakland
p2645
sg12
V-122.22000122
p2646
sg21
V37.72000122
p2647
sbag4
(g2638
g6
Ntp2648
Rp2649
(dp2650
g2642
VKSFO
p2651
sg2644
VSan Francisco
p2652
sg12
V-122.37000275
p2653
sg21
V37.61999893
p2654
sbag4
(g2638
g6
Ntp2655
Rp2656
(dp2657
g2642
VKHWD
p2658
sg2644
VHayward
p2659
sg12
V-122.12000275
p2660
sg21
V37.65999985
p2661
sbag4
(g2638
g6
Ntp2662
Rp2663
(dp2664
g2642
VKHAF
p2665
sg2644
VHalf Moon Bay
p2666
sg12
V-122.50000000
p2667
sg21
V37.50999832
p2668
sbass.