(dp0
S'request'
p1
(dp2
S'-0x706f04a16d9ab931'
p3
ccopy_reg
_reconstructor
p4
(cmodel
Request
p5
c__builtin__
object
p6
Ntp7
Rp8
(dp9
S'dateS'
p10
Vx
p11
sS'longitude'
p12
V-122.395234
p13
sS'dateE'
p14
Vx
p15
sS'time'
p16
cdatetime
datetime
p17
(S'\x07\xdc\x05\x0b\x168\x12\t\xad\x05'
p18
tp19
Rp20
sS'latitude'
p21
V37.776289
p22
sS'id'
p23
g3
sbsS'-0x28d7540b698f8372'
p24
g4
(g5
g6
Ntp25
Rp26
(dp27
g10
Vx
p28
sg12
V-122.395234
p29
sg14
Vx
p30
sg16
g17
(S'\x07\xdc\x05\x0b\x167"\x06\nQ'
p31
tp32
Rp33
sg21
V37.776289
p34
sg23
g24
sbssS'response'
p35
(dp36
g3
(dp37
S'pwstations'
p38
(lp39
g4
(cmodel
PersonalStation
p40
g6
Ntp41
Rp42
(dp43
S'distance'
p44
I0
sS'stationid'
p45
VKCASANFR53
p46
sbag4
(g40
g6
Ntp47
Rp48
(dp49
g44
I1
sg45
VKCASANFR108
p50
sbag4
(g40
g6
Ntp51
Rp52
(dp53
g44
I0
sg45
VKCASANFR14
p54
sbag4
(g40
g6
Ntp55
Rp56
(dp57
g44
I0
sg45
VKCASANFR113
p58
sbag4
(g40
g6
Ntp59
Rp60
(dp61
g44
I1
sg45
VKCASANFR131
p62
sbag4
(g40
g6
Ntp63
Rp64
(dp65
g44
I2
sg45
VKCASANFR58
p66
sbag4
(g40
g6
Ntp67
Rp68
(dp69
g44
I2
sg45
VKCASANFR79
p70
sbag4
(g40
g6
Ntp71
Rp72
(dp73
g44
I2
sg45
VKCASANFR49
p74
sbag4
(g40
g6
Ntp75
Rp76
(dp77
g44
I1
sg45
VKCASANFR102
p78
sbag4
(g40
g6
Ntp79
Rp80
(dp81
g44
I4
sg45
VMCQ147
p82
sbag4
(g40
g6
Ntp83
Rp84
(dp85
g44
I3
sg45
VKPCASANF2
p86
sbag4
(g40
g6
Ntp87
Rp88
(dp89
g44
I3
sg45
VKCASANFR114
p90
sbag4
(g40
g6
Ntp91
Rp92
(dp93
g44
I3
sg45
VMSFOC1
p94
sbag4
(g40
g6
Ntp95
Rp96
(dp97
g44
I2
sg45
VKCASANFR137
p98
sbag4
(g40
g6
Ntp99
Rp100
(dp101
g44
I4
sg45
VKCASANFR3
p102
sbag4
(g40
g6
Ntp103
Rp104
(dp105
g44
I4
sg45
VKCASANFR86
p106
sbag4
(g40
g6
Ntp107
Rp108
(dp109
g44
I4
sg45
VKCASANFR98
p110
sbag4
(g40
g6
Ntp111
Rp112
(dp113
g44
I5
sg45
VKCASANFR73
p114
sbag4
(g40
g6
Ntp115
Rp116
(dp117
g44
I4
sg45
VKCASANFR76
p118
sbag4
(g40
g6
Ntp119
Rp120
(dp121
g44
I5
sg45
VKCASANFR135
p122
sbag4
(g40
g6
Ntp123
Rp124
(dp125
g44
I5
sg45
VKCASANFR110
p126
sbag4
(g40
g6
Ntp127
Rp128
(dp129
g44
I6
sg45
VMC9629
p130
sbag4
(g40
g6
Ntp131
Rp132
(dp133
g44
I5
sg45
VKCASANFR34
p134
sbag4
(g40
g6
Ntp135
Rp136
(dp137
g44
I6
sg45
VKCASANFR70
p138
sbag4
(g40
g6
Ntp139
Rp140
(dp141
g44
I5
sg45
VKCASANFR82
p142
sbag4
(g40
g6
Ntp143
Rp144
(dp145
g44
I6
sg45
VKCASANFR46
p146
sbag4
(g40
g6
Ntp147
Rp148
(dp149
g44
I6
sg45
VKCASANFR72
p150
sbag4
(g40
g6
Ntp151
Rp152
(dp153
g44
I7
sg45
VKCASANFR130
p154
sbag4
(g40
g6
Ntp155
Rp156
(dp157
g44
I7
sg45
VKCASANFR109
p158
sbag4
(g40
g6
Ntp159
Rp160
(dp161
g44
I6
sg45
VKCASANFR128
p162
sbag4
(g40
g6
Ntp163
Rp164
(dp165
g44
I7
sg45
VKCASANFR97
p166
sbag4
(g40
g6
Ntp167
Rp168
(dp169
g44
I8
sg45
VKCAALAME6
p170
sbag4
(g40
g6
Ntp171
Rp172
(dp173
g44
I10
sg45
VKCASANFR100
p174
sbag4
(g40
g6
Ntp175
Rp176
(dp177
g44
I10
sg45
VMAS891
p178
sbasS'airports'
p179
(lp180
g4
(cmodel
AirportStation
p181
g6
Ntp182
Rp183
(dp184
S'icao'
p185
VKOAK
p186
sS'city'
p187
VOakland
p188
sg12
V-122.22000122
p189
sg21
V37.72000122
p190
sbag4
(g181
g6
Ntp191
Rp192
(dp193
g185
VKSFO
p194
sg187
VSan Francisco
p195
sg12
V-122.37000275
p196
sg21
V37.61999893
p197
sbag4
(g181
g6
Ntp198
Rp199
(dp200
g185
VKHWD
p201
sg187
VHayward
p202
sg12
V-122.12000275
p203
sg21
V37.65999985
p204
sbag4
(g181
g6
Ntp205
Rp206
(dp207
g185
VKHAF
p208
sg187
VHalf Moon Bay
p209
sg12
V-122.50000000
p210
sg21
V37.50999832
p211
sbassg24
(dp212
S'pwstations'
p213
(lp214
g4
(g40
g6
Ntp215
Rp216
(dp217
g44
I0
sg45
VKCASANFR53
p218
sbag4
(g40
g6
Ntp219
Rp220
(dp221
g44
I1
sg45
VKCASANFR108
p222
sbag4
(g40
g6
Ntp223
Rp224
(dp225
g44
I0
sg45
VKCASANFR14
p226
sbag4
(g40
g6
Ntp227
Rp228
(dp229
g44
I0
sg45
VKCASANFR113
p230
sbag4
(g40
g6
Ntp231
Rp232
(dp233
g44
I1
sg45
VKCASANFR131
p234
sbag4
(g40
g6
Ntp235
Rp236
(dp237
g44
I2
sg45
VKCASANFR58
p238
sbag4
(g40
g6
Ntp239
Rp240
(dp241
g44
I2
sg45
VKCASANFR79
p242
sbag4
(g40
g6
Ntp243
Rp244
(dp245
g44
I2
sg45
VKCASANFR49
p246
sbag4
(g40
g6
Ntp247
Rp248
(dp249
g44
I1
sg45
VKCASANFR102
p250
sbag4
(g40
g6
Ntp251
Rp252
(dp253
g44
I4
sg45
VMCQ147
p254
sbag4
(g40
g6
Ntp255
Rp256
(dp257
g44
I3
sg45
VKPCASANF2
p258
sbag4
(g40
g6
Ntp259
Rp260
(dp261
g44
I3
sg45
VKCASANFR114
p262
sbag4
(g40
g6
Ntp263
Rp264
(dp265
g44
I3
sg45
VMSFOC1
p266
sbag4
(g40
g6
Ntp267
Rp268
(dp269
g44
I2
sg45
VKCASANFR137
p270
sbag4
(g40
g6
Ntp271
Rp272
(dp273
g44
I4
sg45
VKCASANFR3
p274
sbag4
(g40
g6
Ntp275
Rp276
(dp277
g44
I4
sg45
VKCASANFR86
p278
sbag4
(g40
g6
Ntp279
Rp280
(dp281
g44
I4
sg45
VKCASANFR98
p282
sbag4
(g40
g6
Ntp283
Rp284
(dp285
g44
I5
sg45
VKCASANFR73
p286
sbag4
(g40
g6
Ntp287
Rp288
(dp289
g44
I4
sg45
VKCASANFR76
p290
sbag4
(g40
g6
Ntp291
Rp292
(dp293
g44
I5
sg45
VKCASANFR135
p294
sbag4
(g40
g6
Ntp295
Rp296
(dp297
g44
I5
sg45
VKCASANFR110
p298
sbag4
(g40
g6
Ntp299
Rp300
(dp301
g44
I6
sg45
VMC9629
p302
sbag4
(g40
g6
Ntp303
Rp304
(dp305
g44
I5
sg45
VKCASANFR34
p306
sbag4
(g40
g6
Ntp307
Rp308
(dp309
g44
I6
sg45
VKCASANFR70
p310
sbag4
(g40
g6
Ntp311
Rp312
(dp313
g44
I5
sg45
VKCASANFR82
p314
sbag4
(g40
g6
Ntp315
Rp316
(dp317
g44
I6
sg45
VKCASANFR46
p318
sbag4
(g40
g6
Ntp319
Rp320
(dp321
g44
I6
sg45
VKCASANFR72
p322
sbag4
(g40
g6
Ntp323
Rp324
(dp325
g44
I7
sg45
VKCASANFR130
p326
sbag4
(g40
g6
Ntp327
Rp328
(dp329
g44
I7
sg45
VKCASANFR109
p330
sbag4
(g40
g6
Ntp331
Rp332
(dp333
g44
I6
sg45
VKCASANFR128
p334
sbag4
(g40
g6
Ntp335
Rp336
(dp337
g44
I7
sg45
VKCASANFR97
p338
sbag4
(g40
g6
Ntp339
Rp340
(dp341
g44
I8
sg45
VKCAALAME6
p342
sbag4
(g40
g6
Ntp343
Rp344
(dp345
g44
I10
sg45
VKCASANFR100
p346
sbag4
(g40
g6
Ntp347
Rp348
(dp349
g44
I10
sg45
VMAS891
p350
sbasS'airports'
p351
(lp352
g4
(g181
g6
Ntp353
Rp354
(dp355
g185
VKOAK
p356
sg187
VOakland
p357
sg12
V-122.22000122
p358
sg21
V37.72000122
p359
sbag4
(g181
g6
Ntp360
Rp361
(dp362
g185
VKSFO
p363
sg187
VSan Francisco
p364
sg12
V-122.37000275
p365
sg21
V37.61999893
p366
sbag4
(g181
g6
Ntp367
Rp368
(dp369
g185
VKHWD
p370
sg187
VHayward
p371
sg12
V-122.12000275
p372
sg21
V37.65999985
p373
sbag4
(g181
g6
Ntp374
Rp375
(dp376
g185
VKHAF
p377
sg187
VHalf Moon Bay
p378
sg12
V-122.50000000
p379
sg21
V37.50999832
p380
sbasss.